	.file	"remake.c"
	.text
.Ltext0:
	.section	.rodata.str1.1,"aMS",@progbits,1
.LC0:
	.string	"stat: "
.LC1:
	.string	"lstat: "
.LC2:
	.string	"readlink: "
	.text
	.p2align 4,,15
	.type	name_mtime, @function
name_mtime:
.LFB63:
	.file 1 "remake.c"
	.loc 1 1489 0
	.cfi_startproc
.LVL0:
	pushq	%r12
	.cfi_def_cfa_offset 16
	.cfi_offset 12, -16
	pushq	%rbp
	.cfi_def_cfa_offset 24
	.cfi_offset 6, -24
	pushq	%rbx
	.cfi_def_cfa_offset 32
	.cfi_offset 3, -32
	movq	%rdi, %rbx
	subq	$8336, %rsp
	.cfi_def_cfa_offset 8368
	.loc 1 1494 0
	jmp	.L3
.LVL1:
	.p2align 4,,10
	.p2align 3
.L36:
	.loc 1 1494 0 discriminator 1
	call	__errno_location
.LVL2:
	movl	(%rax), %eax
	.loc 1 1494 0 discriminator 1
	cmpl	$4, %eax
	jne	.L4
.L3:
.LVL3:
.LBB20:
.LBB21:
	.file 2 "/usr/include/x86_64-linux-gnu/sys/stat.h"
	.loc 2 455 0 discriminator 2
	movq	%rsp, %rdx
	movq	%rbx, %rsi
	movl	$1, %edi
	call	__xstat
.LVL4:
.LBE21:
.LBE20:
	.loc 1 1494 0 discriminator 2
	cmpl	$-1, %eax
	je	.L36
	.loc 1 1495 0
	testl	%eax, %eax
	jne	.L37
	.loc 1 1496 0
	movq	96(%rsp), %rdx
	movq	88(%rsp), %rsi
	movq	%rbx, %rdi
	call	file_timestamp_cons
.LVL5:
	movq	%rax, %r12
.LVL6:
	.loc 1 1512 0
	movl	check_symlink_flag(%rip), %eax
.LVL7:
	testl	%eax, %eax
	je	.L1
.L42:
.LBB22:
	.loc 1 1522 0
	leaq	144(%rsp), %rbp
	movq	%rbx, %rsi
	movq	%rbp, %rdi
	call	strcpy
.LVL8:
	.p2align 4,,10
	.p2align 3
.L8:
.LBB23:
.LBB24:
.LBB25:
	.loc 2 462 0 discriminator 2
	movq	%rsp, %rdx
	movq	%rbp, %rsi
	movl	$1, %edi
	call	__lxstat
.LVL9:
.LBE25:
.LBE24:
	.loc 1 1530 0 discriminator 2
	cmpl	$-1, %eax
	je	.L38
	.loc 1 1531 0
	testl	%eax, %eax
	jne	.L39
	.loc 1 1541 0
	movl	24(%rsp), %eax
	andl	$61440, %eax
	.loc 1 1541 0
	cmpl	$40960, %eax
	jne	.L1
	.loc 1 1545 0
	movq	96(%rsp), %rdx
	movq	88(%rsp), %rsi
	movq	%rbp, %rdi
	call	file_timestamp_cons
.LVL10:
	cmpq	%rax, %r12
	cmovb	%rax, %r12
.LVL11:
	jmp	.L15
.LVL12:
	.p2align 4,,10
	.p2align 3
.L40:
	.loc 1 1550 0 discriminator 1
	call	__errno_location
.LVL13:
	.loc 1 1550 0 discriminator 1
	cmpl	$4, (%rax)
	jne	.L16
.LVL14:
.L15:
	.loc 1 1550 0 discriminator 2
	leaq	4240(%rsp), %rsi
	movl	$4096, %edx
	movq	%rbp, %rdi
	call	readlink
.LVL15:
	cmpq	$-1, %rax
	movq	%rax, %rbx
.LVL16:
	je	.L40
	.loc 1 1551 0
	testq	%rax, %rax
	js	.L16
	.loc 1 1557 0
	movb	$0, 4240(%rsp,%rax)
	.loc 1 1562 0
	cmpb	$47, 4240(%rsp)
	je	.L18
	.loc 1 1562 0 is_stmt 0 discriminator 1
	movl	$47, %esi
	movq	%rbp, %rdi
	call	strrchr
.LVL17:
	testq	%rax, %rax
	je	.L18
	.loc 1 1564 0 is_stmt 1
	movq	%rax, %rdx
	subq	%rbp, %rdx
	addq	%rdx, %rbx
.LVL18:
	cmpq	$4094, %rbx
	jg	.L1
	.loc 1 1569 0
	leaq	1(%rax), %rdi
	leaq	4240(%rsp), %rsi
	call	strcpy
.LVL19:
.LBE23:
	.loc 1 1524 0
	jmp	.L8
.LVL20:
.L37:
	call	__errno_location
.LVL21:
	movl	(%rax), %eax
.L4:
.LBE22:
	.loc 1 1497 0
	cmpl	$2, %eax
	je	.L21
	cmpl	$20, %eax
	jne	.L41
.L21:
	.loc 1 1512 0
	movl	check_symlink_flag(%rip), %eax
	.loc 1 1498 0
	movl	$1, %r12d
.LVL22:
	.loc 1 1512 0
	testl	%eax, %eax
	jne	.L42
.LVL23:
.L1:
	.loc 1 1575 0
	addq	$8336, %rsp
	.cfi_remember_state
	.cfi_def_cfa_offset 32
	movq	%r12, %rax
	popq	%rbx
	.cfi_def_cfa_offset 24
	popq	%rbp
	.cfi_def_cfa_offset 16
	popq	%r12
	.cfi_def_cfa_offset 8
.LVL24:
	ret
.LVL25:
	.p2align 4,,10
	.p2align 3
.L38:
	.cfi_restore_state
.LBB28:
.LBB26:
	.loc 1 1530 0 discriminator 1
	call	__errno_location
.LVL26:
	movl	(%rax), %eax
	.loc 1 1530 0 discriminator 1
	cmpl	$4, %eax
	je	.L8
.L11:
	.loc 1 1534 0
	cmpl	$2, %eax
	je	.L1
	cmpl	$20, %eax
	je	.L1
	.loc 1 1535 0
	movq	%rbp, %rsi
	movl	$.LC1, %edi
	call	perror_with_name
.LVL27:
	jmp	.L1
.LVL28:
	.p2align 4,,10
	.p2align 3
.L18:
	.loc 1 1563 0
	leaq	4240(%rsp), %rsi
	movq	%rbp, %rdi
	call	strcpy
.LVL29:
	jmp	.L8
.LVL30:
.L41:
.LBE26:
.LBE28:
	.loc 1 1501 0
	movq	%rbx, %rsi
	movl	$.LC0, %edi
	.loc 1 1502 0
	movl	$1, %r12d
	.loc 1 1501 0
	call	perror_with_name
.LVL31:
	.loc 1 1575 0
	addq	$8336, %rsp
	.cfi_remember_state
	.cfi_def_cfa_offset 32
	movq	%r12, %rax
	popq	%rbx
	.cfi_def_cfa_offset 24
.LVL32:
	popq	%rbp
	.cfi_def_cfa_offset 16
	popq	%r12
	.cfi_def_cfa_offset 8
	ret
.LVL33:
	.p2align 4,,10
	.p2align 3
.L16:
	.cfi_restore_state
.LBB29:
.LBB27:
	.loc 1 1554 0
	movq	%rbp, %rsi
	movl	$.LC2, %edi
	call	perror_with_name
.LVL34:
	.loc 1 1555 0
	jmp	.L1
.LVL35:
.L39:
	call	__errno_location
.LVL36:
	movl	(%rax), %eax
	jmp	.L11
.LBE27:
.LBE29:
	.cfi_endproc
.LFE63:
	.size	name_mtime, .-name_mtime
	.section	.rodata.str1.1
.LC3:
	.string	"%s: %s"
	.text
	.p2align 4,,15
	.globl	show_goal_error
	.type	show_goal_error, @function
show_goal_error:
.LFB54:
	.loc 1 271 0
	.cfi_startproc
	.loc 1 274 0
	movq	goal_dep(%rip), %rdx
	movzbl	32(%rdx), %eax
	andl	$6, %eax
	cmpb	$2, %al
	je	.L61
	.loc 1 288 0
	ret
	.p2align 4,,10
	.p2align 3
.L61:
	.loc 1 271 0
	pushq	%r13
	.cfi_def_cfa_offset 16
	.cfi_offset 13, -16
	pushq	%r12
	.cfi_def_cfa_offset 24
	.cfi_offset 12, -24
	pushq	%rbp
	.cfi_def_cfa_offset 32
	.cfi_offset 6, -32
	pushq	%rbx
	.cfi_def_cfa_offset 40
	.cfi_offset 3, -40
	subq	$8, %rsp
	.cfi_def_cfa_offset 48
	.loc 1 277 0
	movq	goal_list(%rip), %rbx
.LVL37:
	testq	%rbx, %rbx
	je	.L43
	.loc 1 278 0
	movq	16(%rdx), %rax
	cmpq	%rax, 16(%rbx)
	jne	.L47
	jmp	.L45
	.p2align 4,,10
	.p2align 3
.L48:
	cmpq	%rax, 16(%rbx)
	je	.L45
.L47:
	.loc 1 277 0 discriminator 2
	movq	(%rbx), %rbx
.LVL38:
	testq	%rbx, %rbx
	jne	.L48
.L43:
	.loc 1 288 0
	addq	$8, %rsp
	.cfi_remember_state
	.cfi_def_cfa_offset 40
	popq	%rbx
	.cfi_restore 3
	.cfi_def_cfa_offset 32
.LVL39:
	popq	%rbp
	.cfi_restore 6
	.cfi_def_cfa_offset 24
	popq	%r12
	.cfi_restore 12
	.cfi_def_cfa_offset 16
	popq	%r13
	.cfi_restore 13
	.cfi_def_cfa_offset 8
	ret
.LVL40:
	.p2align 4,,10
	.p2align 3
.L45:
	.cfi_restore_state
	.loc 1 280 0
	movzwl	34(%rbx), %eax
	testw	%ax, %ax
	je	.L43
	.loc 1 282 0
	movzwl	%ax, %edi
	call	strerror
.LVL41:
	movq	%rax, %r13
	movq	16(%rbx), %rax
	movq	(%rax), %r12
	movq	%r12, %rdi
	call	strlen
.LVL42:
	movzwl	34(%rbx), %edi
	movq	%rax, %rbp
	call	strerror
.LVL43:
	movq	%rax, %rdi
	call	strlen
.LVL44:
	leaq	40(%rbx), %rdi
	leaq	0(%rbp,%rax), %rsi
	movq	%r13, %r8
	xorl	%eax, %eax
	movq	%r12, %rcx
	movl	$.LC3, %edx
	call	error
.LVL45:
	.loc 1 284 0
	xorl	%eax, %eax
	movw	%ax, 34(%rbx)
	jmp	.L43
	.cfi_endproc
.LFE54:
	.size	show_goal_error, .-show_goal_error
	.section	.rodata.str1.8,"aMS",@progbits,1
	.align 8
.LC4:
	.string	"%sNo rule to make target '%s', needed by '%s'%s"
	.section	.rodata.str1.1
.LC5:
	.string	""
.LC6:
	.string	"*** "
.LC7:
	.string	"."
	.section	.rodata.str1.8
	.align 8
.LC8:
	.string	"%sNo rule to make target '%s'%s"
	.text
	.p2align 4,,15
	.type	complain, @function
complain:
.LFB56:
	.loc 1 379 0
	.cfi_startproc
.LVL46:
	pushq	%r12
	.cfi_def_cfa_offset 16
	.cfi_offset 12, -16
	pushq	%rbp
	.cfi_def_cfa_offset 24
	.cfi_offset 6, -24
	pushq	%rbx
	.cfi_def_cfa_offset 32
	.cfi_offset 3, -32
	movq	%rdi, %rbx
.L65:
	.loc 1 388 0
	movq	24(%rbx), %rax
.LVL47:
	testq	%rax, %rax
	je	.L63
	.p2align 4,,10
	.p2align 3
.L66:
	.loc 1 390 0
	movq	16(%rax), %rdx
	testb	$4, 133(%rdx)
	je	.L64
	.loc 1 390 0 is_stmt 0 discriminator 1
	movzbl	132(%rdx), %ecx
	andl	$3, %ecx
	cmpl	$1, %ecx
	jle	.L64
	.loc 1 390 0 discriminator 2
	testb	$16, 134(%rbx)
	jne	.L72
.L64:
	.loc 1 388 0 is_stmt 1 discriminator 2
	movq	(%rax), %rax
.LVL48:
	testq	%rax, %rax
	jne	.L66
.L63:
.LVL49:
.LBB34:
.LBB35:
	.loc 1 399 0
	call	show_goal_error
.LVL50:
	.loc 1 402 0
	movq	96(%rbx), %rbp
	testq	%rbp, %rbp
	je	.L84
.LBB36:
	.loc 1 404 0
	movq	(%rbx), %rdi
	call	strlen
.LVL51:
	movq	0(%rbp), %rdi
	movq	%rax, %r12
	call	strlen
.LVL52:
	.loc 1 405 0
	movl	$5, %edx
	movl	$.LC4, %esi
	xorl	%edi, %edi
	.loc 1 404 0
	leaq	4(%r12,%rax), %rbp
.LVL53:
	.loc 1 405 0
	call	dcgettext
.LVL54:
	.loc 1 407 0
	movl	keep_going_flag(%rip), %esi
	.loc 1 405 0
	movq	%rax, %rdx
.LVL55:
	.loc 1 408 0
	movq	96(%rbx), %rax
.LVL56:
	.loc 1 407 0
	testl	%esi, %esi
	je	.L85
	.loc 1 410 0
	subq	$8, %rsp
	.cfi_def_cfa_offset 40
	movl	$.LC6, %ecx
	movq	%rbp, %rsi
	pushq	$.LC7
	.cfi_def_cfa_offset 48
	movq	(%rax), %r9
	xorl	%edi, %edi
	movq	(%rbx), %r8
	xorl	%eax, %eax
	call	error
.LVL57:
	popq	%rdx
	.cfi_def_cfa_offset 40
	popq	%rcx
	.cfi_def_cfa_offset 32
.LVL58:
.L68:
.LBE36:
	.loc 1 423 0
	andb	$-17, 134(%rbx)
.LBE35:
.LBE34:
	.loc 1 425 0
	popq	%rbx
	.cfi_remember_state
	.cfi_def_cfa_offset 24
.LVL59:
	popq	%rbp
	.cfi_def_cfa_offset 16
	popq	%r12
	.cfi_def_cfa_offset 8
	ret
.LVL60:
	.p2align 4,,10
	.p2align 3
.L72:
	.cfi_restore_state
	.loc 1 390 0
	movq	%rdx, %rbx
	jmp	.L65
.LVL61:
.L84:
.LBB41:
.LBB40:
.LBB37:
	.loc 1 414 0
	movq	(%rbx), %rdi
	call	strlen
.LVL62:
	.loc 1 415 0
	movl	$5, %edx
	xorl	%edi, %edi
	movl	$.LC8, %esi
	.loc 1 414 0
	leaq	4(%rax), %rbp
.LVL63:
	.loc 1 415 0
	call	dcgettext
.LVL64:
	movq	%rax, %rdx
.LVL65:
	.loc 1 417 0
	movl	keep_going_flag(%rip), %eax
.LVL66:
	testl	%eax, %eax
	je	.L86
	.loc 1 420 0
	movq	(%rbx), %r8
	movl	$.LC7, %r9d
	movl	$.LC6, %ecx
	movq	%rbp, %rsi
	xorl	%edi, %edi
	xorl	%eax, %eax
	call	error
.LVL67:
	jmp	.L68
.LVL68:
.L85:
.LBE37:
.LBB38:
	.loc 1 408 0
	subq	$8, %rsp
	.cfi_remember_state
	.cfi_def_cfa_offset 40
	movl	$.LC5, %ecx
	movq	%rbp, %rsi
	pushq	$.LC5
	.cfi_def_cfa_offset 48
	movq	(%rax), %r9
	xorl	%edi, %edi
	movq	(%rbx), %r8
	xorl	%eax, %eax
	call	fatal
.LVL69:
.L86:
	.cfi_restore_state
.LBE38:
.LBB39:
	.loc 1 418 0
	movq	(%rbx), %r8
	movl	$.LC5, %r9d
	movq	%rbp, %rsi
	movq	%r9, %rcx
	xorl	%edi, %edi
	xorl	%eax, %eax
	call	fatal
.LVL70:
.LBE39:
.LBE40:
.LBE41:
	.cfi_endproc
.LFE56:
	.size	complain, .-complain
	.section	.rodata.str1.1
.LC9:
	.string	"$(.LIBPATTERNS)"
	.section	.rodata.str1.8
	.align 8
.LC10:
	.string	".LIBPATTERNS element '%s' is not a pattern"
	.section	.rodata.str1.1
.LC11:
	.string	"%s/%s"
.LC16:
	.string	"%lu"
.LC17:
	.string	"%.2g"
	.section	.rodata.str1.8
	.align 8
.LC18:
	.string	"Warning: File '%s' has modification time %s s in the future"
	.text
	.p2align 4,,15
	.globl	f_mtime
	.type	f_mtime, @function
f_mtime:
.LFB62:
	.loc 1 1272 0
	.cfi_startproc
.LVL71:
	pushq	%rbp
	.cfi_def_cfa_offset 16
	.cfi_offset 6, -16
	movq	%rsp, %rbp
	.cfi_def_cfa_register 6
	pushq	%r15
	pushq	%r14
	pushq	%r13
	pushq	%r12
	.cfi_offset 15, -24
	.cfi_offset 14, -32
	.cfi_offset 13, -40
	.cfi_offset 12, -48
	movq	%rdi, %r14
	pushq	%rbx
	movl	%esi, %r13d
	subq	$216, %rsp
	.cfi_offset 3, -56
	.loc 1 1279 0
	movq	(%rdi), %rdi
.LVL72:
	call	ar_name
.LVL73:
	testl	%eax, %eax
	je	.L88
.LBB57:
	.loc 1 1288 0
	movq	(%r14), %rdi
	leaq	-160(%rbp), %rdx
	leaq	-168(%rbp), %rsi
	call	ar_parse_name
.LVL74:
	.loc 1 1292 0
	movq	-168(%rbp), %rdi
	call	lookup_file
.LVL75:
	.loc 1 1293 0
	testq	%rax, %rax
	.loc 1 1292 0
	movq	%rax, %rbx
.LVL76:
	.loc 1 1293 0
	je	.L201
.L89:
	.loc 1 1295 0
	movl	%r13d, %esi
	movq	%rbx, %rdi
	call	f_mtime
.LVL77:
	movq	%rax, -176(%rbp)
	.loc 1 1296 0
	jmp	.L90
	.p2align 4,,10
	.p2align 3
.L141:
	movq	%rax, %rbx
.LVL78:
.L90:
	.loc 1 1296 0 is_stmt 0 discriminator 1
	movq	72(%rbx), %rax
	testq	%rax, %rax
	jne	.L141
	.loc 1 1297 0 is_stmt 1
	testl	%r13d, %r13d
.LBB58:
	.loc 1 1297 0
	movq	-168(%rbp), %r12
.LBE58:
	.loc 1 1297 0
	je	.L92
.LBB59:
	.loc 1 1297 0 discriminator 1
	movq	8(%rbx), %r13
.LVL79:
	movq	%r12, %rsi
	movq	%r13, %rdi
	call	strcmp
.LVL80:
.LBE59:
	.loc 1 1297 0 discriminator 1
	testl	%eax, %eax
	jne	.L202
.L92:
	.loc 1 1324 0
	movq	%r12, %rdi
	call	free
.LVL81:
	.loc 1 1328 0
	movq	-176(%rbp), %r12
	.loc 1 1326 0
	orb	$-128, 132(%r14)
	.loc 1 1328 0
	cmpq	$1, %r12
	je	.L87
	.loc 1 1332 0
	movq	8(%r14), %rdi
	.loc 1 1335 0
	movl	$1, %r12d
	.loc 1 1332 0
	call	ar_member_date
.LVL82:
	.loc 1 1335 0
	cmpq	$-1, %rax
	je	.L199
	.loc 1 1335 0 is_stmt 0 discriminator 1
	movq	8(%r14), %rdi
	xorl	%edx, %edx
	movq	%rax, %rsi
	call	file_timestamp_cons
.LVL83:
	movq	%rax, %r12
.LVL84:
.L199:
.LBE57:
.LBB62:
.LBB63:
	.loc 1 1380 0 is_stmt 1
	movq	%r12, -176(%rbp)
.LVL85:
.L99:
.LBE63:
.LBE62:
	.loc 1 1391 0
	movl	clock_skew_detected(%rip), %eax
	testl	%eax, %eax
	je	.L203
.L100:
	.loc 1 1454 0
	movq	104(%r14), %rax
	testq	%rax, %rax
	cmove	%r14, %rax
.LVL86:
	.loc 1 1457 0
	movzbl	133(%rax), %esi
	shrb	$2, %sil
	andl	$1, %esi
.LVL87:
	movl	%esi, %edx
	jmp	.L140
	.p2align 4,,10
	.p2align 3
.L139:
	.loc 1 1471 0
	movq	56(%rax), %rax
.LVL88:
	.loc 1 1473 0
	testq	%rax, %rax
	je	.L87
.L205:
	movzbl	133(%rax), %edx
	shrb	$2, %dl
	andl	$1, %edx
.L140:
	.loc 1 1465 0
	cmpq	$1, %r12
	je	.L138
	.loc 1 1466 0
	movzwl	132(%rax), %ecx
	andw	$16652, %cx
	cmpw	$16384, %cx
	je	.L204
.L138:
	.loc 1 1469 0
	cmpb	%dl, %sil
	jne	.L139
	.loc 1 1470 0
	movq	%r12, 112(%rax)
	.loc 1 1471 0
	movq	56(%rax), %rax
.LVL89:
	.loc 1 1473 0
	testq	%rax, %rax
	jne	.L205
.LVL90:
.L87:
	.loc 1 1476 0
	leaq	-40(%rbp), %rsp
	movq	%r12, %rax
	popq	%rbx
	popq	%r12
	popq	%r13
	popq	%r14
	popq	%r15
	popq	%rbp
	.cfi_remember_state
	.cfi_def_cfa 7, 8
	ret
.LVL91:
	.p2align 4,,10
	.p2align 3
.L88:
	.cfi_restore_state
	.loc 1 1340 0
	movq	(%r14), %rdi
	call	name_mtime
.LVL92:
	.loc 1 1342 0
	cmpq	$1, %rax
	.loc 1 1340 0
	movq	%rax, %r12
	movq	%rax, -176(%rbp)
	.loc 1 1342 0
	jne	.L99
	testl	%r13d, %r13d
	je	.L99
	.loc 1 1342 0 is_stmt 0 discriminator 1
	movzbl	134(%r14), %r13d
.LVL93:
	andl	$2, %r13d
	jne	.L100
.LBB87:
	.loc 1 1345 0 is_stmt 1
	movq	(%r14), %rdi
	leaq	-176(%rbp), %rsi
	xorl	%ecx, %ecx
	xorl	%edx, %edx
	call	vpath_search
.LVL94:
	.loc 1 1346 0
	testq	%rax, %rax
	.loc 1 1345 0
	movq	%rax, %rbx
.LVL95:
	.loc 1 1346 0
	je	.L206
.LVL96:
.L101:
.LBB64:
	.loc 1 1353 0
	movq	-176(%rbp), %rax
	testq	%rax, %rax
	je	.L122
	.loc 1 1356 0
	movq	%rax, 112(%r14)
.L122:
	.loc 1 1362 0
	movq	%rbx, %rdi
	call	strlen
.LVL97:
	movq	(%r14), %rdi
	movq	%rax, %r12
	call	strlen
.LVL98:
	leal	-1(%r12), %esi
	.loc 1 1368 0
	movq	%rbx, %rdi
	.loc 1 1362 0
	subl	%eax, %esi
	.loc 1 1368 0
	call	gpath_search
.LVL99:
	testl	%eax, %eax
	.loc 1 1370 0
	movq	%rbx, %rsi
	movq	%r14, %rdi
	.loc 1 1368 0
	je	.L123
	.loc 1 1370 0
	call	rename_file
.LVL100:
	.loc 1 1371 0
	jmp	.L124
.LVL101:
	.p2align 4,,10
	.p2align 3
.L145:
	movq	%rax, %r14
.LVL102:
.L124:
	.loc 1 1371 0 is_stmt 0 discriminator 1
	movq	72(%r14), %rax
	testq	%rax, %rax
	jne	.L145
	.loc 1 1372 0 is_stmt 1
	movq	112(%r14), %r12
	testq	%r12, %r12
	jne	.L87
	.loc 1 1372 0 is_stmt 0 discriminator 1
	movl	$1, %esi
	movq	%r14, %rdi
	call	f_mtime
.LVL103:
	movq	%rax, %r12
	jmp	.L87
.LVL104:
	.p2align 4,,10
	.p2align 3
.L204:
.LBE64:
.LBE87:
	.loc 1 1467 0 is_stmt 1
	andb	$-65, 133(%rax)
	jmp	.L138
.LVL105:
	.p2align 4,,10
	.p2align 3
.L203:
	.loc 1 1392 0
	cmpq	$-1, %r12
	je	.L100
	cmpq	$1, %r12
	je	.L100
	.loc 1 1393 0
	testb	$4, 133(%r14)
	jne	.L100
.LVL106:
.LBB88:
	.loc 1 1420 0
	cmpq	%r12, adjusted_now.6559(%rip)
	jnb	.L100
.LBB89:
	.loc 1 1423 0
	leaq	-168(%rbp), %rdi
	call	file_timestamp_now
.LVL107:
	.loc 1 1424 0
	movl	-168(%rbp), %edi
	leal	-1(%rdi), %edx
	movslq	%edx, %rdx
	addq	%rax, %rdx
	.loc 1 1425 0
	cmpq	%r12, %rdx
	.loc 1 1424 0
	movq	%rdx, adjusted_now.6559(%rip)
	.loc 1 1425 0
	jnb	.L126
.LBB90:
	.loc 1 1433 0
	movq	-176(%rbp), %rcx
	.loc 1 1434 0
	leal	-3(%rax), %esi
	.loc 1 1433 0
	subq	$3, %rax
.LVL108:
	.loc 1 1435 0
	pxor	%xmm0, %xmm0
	.loc 1 1433 0
	shrq	$30, %rax
.LVL109:
	.loc 1 1434 0
	andl	$1073741823, %esi
	leal	-3(%rcx), %edx
	andl	$1073741823, %edx
	subl	%esi, %edx
	.loc 1 1435 0
	cvtsi2sd	%edx, %xmm0
	.loc 1 1433 0
	leaq	-3(%rcx), %rdx
	shrq	$30, %rdx
	.loc 1 1434 0
	subq	%rax, %rdx
	movq	%rdx, %rax
	.loc 1 1435 0
	divsd	.LC12(%rip), %xmm0
	.loc 1 1434 0
	js	.L127
	pxor	%xmm1, %xmm1
	cvtsi2sdq	%rdx, %xmm1
.L128:
	.loc 1 1432 0
	addsd	%xmm1, %xmm0
.LVL110:
	.loc 1 1438 0
	ucomisd	.LC13(%rip), %xmm0
	jb	.L129
	.loc 1 1438 0 is_stmt 0 discriminator 1
	movsd	.LC14(%rip), %xmm1
	ucomisd	%xmm0, %xmm1
	jnb	.L207
.L129:
	.loc 1 1441 0 is_stmt 1
	leaq	-160(%rbp), %rax
	movl	$.LC17, %esi
	movq	%rax, -208(%rbp)
	movq	%rax, %rdi
	movl	$1, %eax
	call	sprintf
.LVL111:
.L134:
	.loc 1 1442 0
	movl	$5, %edx
	movl	$.LC18, %esi
	xorl	%edi, %edi
	call	dcgettext
.LVL112:
	.loc 1 1442 0
	movq	(%r14), %r12
	.loc 1 1442 0
	movq	%rax, %rbx
	.loc 1 1442 0
	movq	%r12, %rdi
	call	strlen
.LVL113:
	movq	-208(%rbp), %rdi
.L135:
	movl	(%rdi), %edx
	addq	$4, %rdi
	leal	-16843009(%rdx), %esi
	notl	%edx
	andl	%edx, %esi
	andl	$-2139062144, %esi
	je	.L135
	movl	%esi, %edx
	movq	-208(%rbp), %r8
	shrl	$16, %edx
	testl	$32896, %esi
	cmove	%edx, %esi
	leaq	2(%rdi), %rdx
	movl	%esi, %ecx
	cmove	%rdx, %rdi
	addb	%sil, %cl
	movq	%rbx, %rdx
	sbbq	$3, %rdi
	movq	%r12, %rcx
	subq	%r8, %rdi
	leaq	(%rax,%rdi), %rsi
	xorl	%edi, %edi
	xorl	%eax, %eax
	call	error
.LVL114:
	.loc 1 1446 0
	movl	$1, clock_skew_detected(%rip)
.L126:
	movq	-176(%rbp), %r12
	jmp	.L100
.LVL115:
.L202:
.LBE90:
.LBE89:
.LBE88:
.LBB95:
.LBB60:
	.loc 1 1305 0
	movq	%r13, %rdi
	call	strlen
.LVL116:
	.loc 1 1306 0
	movq	-160(%rbp), %rcx
	.loc 1 1305 0
	movq	%rax, -200(%rbp)
.LVL117:
	.loc 1 1306 0
	movq	%rcx, %rdi
	movq	%rcx, -216(%rbp)
	call	strlen
.LVL118:
	.loc 1 1308 0
	movq	-200(%rbp), %r8
	movq	%rax, -208(%rbp)
	.loc 1 1309 0
	movq	%r13, %rsi
	.loc 1 1308 0
	leal	(%r8,%rax), %r15d
	movl	%r8d, %r8d
	.loc 1 1309 0
	movq	%r8, %rdx
	movq	%r8, -200(%rbp)
.LVL119:
	.loc 1 1308 0
	leal	3(%r15), %eax
.LVL120:
	.loc 1 1308 0
	addq	$30, %rax
	shrq	$4, %rax
	salq	$4, %rax
	subq	%rax, %rsp
	leaq	15(%rsp), %r12
	andq	$-16, %r12
.LVL121:
	.loc 1 1309 0
	movq	%r12, %rdi
	call	memcpy
.LVL122:
	.loc 1 1310 0
	movq	-200(%rbp), %r8
	.loc 1 1311 0
	movq	-208(%rbp), %r9
	movq	-216(%rbp), %rcx
	leaq	1(%r12,%r8), %rdi
	.loc 1 1310 0
	movb	$40, (%r12,%r8)
	.loc 1 1311 0
	movl	%r9d, %edx
	movq	%rcx, %rsi
	call	memcpy
.LVL123:
	.loc 1 1312 0
	leal	1(%r15), %eax
	.loc 1 1318 0
	movq	%r12, %rdi
	.loc 1 1312 0
	movb	$41, (%r12,%rax)
	.loc 1 1313 0
	leal	2(%r15), %eax
	movb	$0, (%r12,%rax)
	.loc 1 1317 0
	movq	8(%rbx), %rax
	cmpq	%rax, (%rbx)
	je	.L208
	.loc 1 1320 0
	call	strcache_add
.LVL124:
	movq	%r14, %rdi
	movq	%rax, %rsi
	call	rehash_file
.LVL125:
	jmp	.L95
	.p2align 4,,10
	.p2align 3
.L142:
	movq	%rax, %r14
.LVL126:
.L95:
	.loc 1 1321 0 discriminator 1
	movq	72(%r14), %rax
	testq	%rax, %rax
	jne	.L142
	movq	-168(%rbp), %r12
.LVL127:
	jmp	.L92
.LVL128:
.L201:
.LBE60:
	.loc 1 1294 0
	movq	-168(%rbp), %rdi
	call	strcache_add
.LVL129:
	movq	%rax, %rdi
	call	enter_file
.LVL130:
	movq	%rax, %rbx
.LVL131:
	jmp	.L89
.LVL132:
.L123:
.LBE95:
.LBB96:
.LBB65:
	.loc 1 1375 0
	call	rehash_file
.LVL133:
	.loc 1 1376 0
	jmp	.L125
.LVL134:
	.p2align 4,,10
	.p2align 3
.L146:
	movq	%rax, %r14
.LVL135:
.L125:
	.loc 1 1376 0 is_stmt 0 discriminator 1
	movq	72(%r14), %rax
	testq	%rax, %rax
	jne	.L146
	.loc 1 1379 0 is_stmt 1
	movq	-176(%rbp), %r12
	cmpq	$2, %r12
	je	.L99
	cmpq	$-1, %r12
	je	.L99
	.loc 1 1380 0
	movq	%rbx, %rdi
	call	name_mtime
.LVL136:
	movq	%rax, %r12
	jmp	.L199
.LVL137:
.L206:
.LBE65:
	.loc 1 1348 0
	movq	(%r14), %r12
	cmpb	$45, (%r12)
	je	.L209
.LVL138:
.L200:
	movq	-176(%rbp), %r12
	jmp	.L99
.LVL139:
.L208:
.LBE96:
.LBB97:
.LBB61:
	.loc 1 1318 0
	call	strcache_add
.LVL140:
	movq	%r14, %rdi
	movq	%rax, %rsi
	call	rename_file
.LVL141:
	jmp	.L95
.LVL142:
.L209:
.LBE61:
.LBE97:
.LBB98:
	.loc 1 1348 0 discriminator 1
	cmpb	$108, 1(%r12)
	jne	.L200
.LVL143:
.LBB66:
.LBB67:
	.loc 1 1617 0
	movl	$.LC9, %edi
	call	variable_expand
.LVL144:
	movq	%rax, %rdi
	call	xstrdup
.LVL145:
	.loc 1 1620 0
	leaq	2(%r12), %rdi
	.loc 1 1617 0
	movq	%rax, %rsi
	movq	%rax, -232(%rbp)
.LVL146:
	.loc 1 1621 0
	orq	$-1, %rcx
	movl	%r13d, %eax
.LVL147:
	.loc 1 1620 0
	movq	%rdi, -240(%rbp)
.LVL148:
	.loc 1 1621 0
	repnz scasb
.LVL149:
	.loc 1 1626 0
	movq	%rsi, -160(%rbp)
	.loc 1 1613 0
	movl	$0, -216(%rbp)
	.loc 1 1621 0
	notq	%rcx
	.loc 1 1613 0
	movl	$0, -200(%rbp)
	movq	%r14, -224(%rbp)
	.loc 1 1621 0
	leal	-1(%rcx), %eax
	movl	%eax, -244(%rbp)
.LVL150:
	leaq	-160(%rbp), %rax
	movq	%rax, -208(%rbp)
.LVL151:
.L104:
	.loc 1 1627 0
	movq	-208(%rbp), %rdi
	leaq	-188(%rbp), %rsi
	call	find_next_token
.LVL152:
	testq	%rax, %rax
	movq	%rax, %r13
.LVL153:
	je	.L210
.LBB68:
	.loc 1 1633 0
	movl	$.LC5, %edi
	call	variable_expand
.LVL154:
	movq	%rax, %r12
.LVL155:
.LBB69:
	.loc 1 1637 0
	movl	-188(%rbp), %eax
.LVL156:
	.loc 1 1641 0
	movq	%r13, %rdi
	.loc 1 1637 0
	addq	%r13, %rax
	movzbl	(%rax), %r15d
.LVL157:
	.loc 1 1640 0
	movb	$0, (%rax)
	.loc 1 1641 0
	call	find_percent
.LVL158:
	.loc 1 1642 0
	testq	%rax, %rax
	.loc 1 1641 0
	movq	%rax, %r14
.LVL159:
	.loc 1 1642 0
	je	.L211
	.loc 1 1650 0
	movq	%rax, %r8
	movq	%r13, %rsi
	movq	%r12, %rdi
	subq	%r13, %r8
	movl	%r8d, %edx
	movq	%r8, -256(%rbp)
	call	variable_buffer_output
.LVL160:
	.loc 1 1651 0
	movl	-244(%rbp), %edx
	movq	-240(%rbp), %rsi
	movq	%rax, %rdi
	call	variable_buffer_output
.LVL161:
	.loc 1 1652 0
	movq	-256(%rbp), %r8
	movl	-188(%rbp), %edx
	leaq	1(%r14), %rsi
	movq	%rax, %rdi
	subl	%r8d, %edx
	call	variable_buffer_output
.LVL162:
	.loc 1 1653 0
	movl	-188(%rbp), %eax
.LBE69:
	.loc 1 1657 0
	movq	%r12, %rdi
.LBB70:
	.loc 1 1653 0
	movb	%r15b, 0(%r13,%rax)
.LBE70:
	.loc 1 1657 0
	call	name_mtime
.LVL163:
	.loc 1 1658 0
	cmpq	$1, %rax
	.loc 1 1657 0
	movq	%rax, -168(%rbp)
	.loc 1 1658 0
	jne	.L212
.LBB71:
	.loc 1 1671 0
	leaq	-180(%rbp), %rcx
	leaq	-184(%rbp), %rdx
	leaq	-168(%rbp), %rsi
	movq	%r12, %rdi
	call	vpath_search
.LVL164:
	.loc 1 1673 0
	testq	%rax, %rax
	je	.L109
	.loc 1 1676 0
	testq	%rbx, %rbx
	movl	-184(%rbp), %edx
	je	.L111
	cmpl	-200(%rbp), %edx
	jb	.L111
	.loc 1 1677 0
	je	.L213
.LVL165:
.L109:
.LBE71:
	.loc 1 1692 0
	movl	buflen.6605(%rip), %r13d
.LVL166:
	testl	%r13d, %r13d
	je	.L214
	.loc 1 1704 0
	movq	%r12, %rdi
	call	strlen
.LVL167:
	cmpq	%rax, %r13
	jnb	.L117
	.loc 1 1707 0
	movl	libdir_maxlen.6606(%rip), %edx
	movq	buf.6604(%rip), %rdi
	.loc 1 1706 0
	movl	%eax, buflen.6605(%rip)
	.loc 1 1707 0
	leal	2(%rdx,%rax), %esi
	call	xrealloc
.LVL168:
	movq	%rax, buf.6604(%rip)
.LVL169:
.L117:
.LBB72:
	.loc 1 1715 0
	movq	dirs.6593(%rip), %rdx
	.loc 1 1713 0
	movl	std_dirs.6607(%rip), %r13d
	.loc 1 1715 0
	testq	%rdx, %rdx
	.loc 1 1713 0
	notl	%r13d
.LVL170:
	.loc 1 1715 0
	je	.L104
	movl	$dirs.6593, %r15d
	movl	-200(%rbp), %r14d
	jmp	.L120
.LVL171:
.L216:
	.loc 1 1721 0
	cmpl	%r14d, %r13d
	jb	.L147
.L118:
	.loc 1 1715 0
	addq	$8, %r15
.LVL172:
	movq	(%r15), %rdx
	.loc 1 1731 0
	addl	$1, %r13d
.LVL173:
	.loc 1 1715 0
	testq	%rdx, %rdx
	je	.L215
.LVL174:
.L120:
	.loc 1 1717 0
	movq	buf.6604(%rip), %rdi
	movq	%r12, %rcx
	movl	$.LC11, %esi
	xorl	%eax, %eax
	call	sprintf
.LVL175:
	.loc 1 1718 0
	movq	buf.6604(%rip), %rdi
	call	name_mtime
.LVL176:
	.loc 1 1719 0
	cmpq	$1, %rax
	.loc 1 1718 0
	movq	%rax, -168(%rbp)
	.loc 1 1719 0
	je	.L118
	.loc 1 1721 0
	testq	%rbx, %rbx
	jne	.L216
.L147:
	.loc 1 1723 0
	movq	buf.6604(%rip), %rdi
	.loc 1 1727 0
	movl	%r13d, %r14d
.LVL177:
	.loc 1 1723 0
	call	strcache_add
.LVL178:
	movq	%rax, %rbx
.LVL179:
	.loc 1 1727 0
	movq	-168(%rbp), %rax
.LVL180:
	movq	%rax, -176(%rbp)
	jmp	.L118
.L215:
	movl	%r14d, -200(%rbp)
	jmp	.L104
.LVL181:
.L127:
.LBE72:
.LBE68:
.LBE67:
.LBE66:
.LBE98:
.LBB99:
.LBB93:
.LBB91:
	.loc 1 1434 0
	pxor	%xmm1, %xmm1
	shrq	%rdx
	andl	$1, %eax
	orq	%rax, %rdx
	cvtsi2sdq	%rdx, %xmm1
	addsd	%xmm1, %xmm1
	jmp	.L128
.LVL182:
.L207:
	.loc 1 1439 0
	movsd	.LC15(%rip), %xmm1
	ucomisd	%xmm1, %xmm0
	jnb	.L132
	cvttsd2siq	%xmm0, %rdx
.LVL183:
.L133:
	leaq	-160(%rbp), %rax
	movl	$.LC16, %esi
	movq	%rax, -208(%rbp)
	movq	%rax, %rdi
	xorl	%eax, %eax
	call	sprintf
.LVL184:
	jmp	.L134
.LVL185:
.L214:
.LBE91:
.LBE93:
.LBE99:
.LBB100:
.LBB83:
.LBB80:
.LBB77:
	.loc 1 1694 0
	movq	dirs.6593(%rip), %rdi
	movl	libdir_maxlen.6606(%rip), %r13d
	testq	%rdi, %rdi
	je	.L114
	movl	std_dirs.6607(%rip), %eax
.LVL186:
	movl	$dirs.6593, %r14d
.LVL187:
	leal	1(%rax), %r15d
.LVL188:
.L116:
.LBB73:
	.loc 1 1696 0
	call	strlen
.LVL189:
	.loc 1 1697 0
	cmpl	%r13d, %eax
	jle	.L115
	.loc 1 1698 0
	movl	%eax, libdir_maxlen.6606(%rip)
	movl	%eax, %r13d
.L115:
.LBE73:
	.loc 1 1694 0
	addq	$8, %r14
.LVL190:
	movq	(%r14), %rdi
.LBB74:
	.loc 1 1699 0
	movl	%r15d, std_dirs.6607(%rip)
	addl	$1, %r15d
.LBE74:
	.loc 1 1694 0
	testq	%rdi, %rdi
	jne	.L116
.LVL191:
.L114:
	.loc 1 1701 0
	movq	%r12, %rdi
	call	strlen
.LVL192:
	.loc 1 1702 0
	leal	2(%r13,%rax), %edi
	.loc 1 1701 0
	movl	%eax, buflen.6605(%rip)
	.loc 1 1702 0
	call	xmalloc
.LVL193:
	movq	%rax, buf.6604(%rip)
	jmp	.L117
.LVL194:
.L213:
.LBB75:
	.loc 1 1678 0
	movl	-216(%rbp), %edi
	cmpl	%edi, -180(%rbp)
	jnb	.L109
	movl	-200(%rbp), %edx
.L111:
.LVL195:
	.loc 1 1682 0
	movl	-180(%rbp), %edi
	.loc 1 1685 0
	movq	-168(%rbp), %rcx
	movq	%rax, %rbx
	.loc 1 1681 0
	movl	%edx, -200(%rbp)
	.loc 1 1682 0
	movl	%edi, -216(%rbp)
.LVL196:
	.loc 1 1685 0
	movq	%rcx, -176(%rbp)
	jmp	.L109
.LVL197:
.L132:
.LBE75:
.LBE77:
.LBE80:
.LBE83:
.LBE100:
.LBB101:
.LBB94:
.LBB92:
	.loc 1 1439 0
	subsd	%xmm1, %xmm0
.LVL198:
	movabsq	$-9223372036854775808, %rax
	cvttsd2siq	%xmm0, %rdx
	xorq	%rax, %rdx
	jmp	.L133
.LVL199:
.L211:
.LBE92:
.LBE94:
.LBE101:
.LBB102:
.LBB84:
.LBB81:
.LBB78:
.LBB76:
	.loc 1 1645 0
	movl	$5, %edx
	movl	$.LC10, %esi
	xorl	%edi, %edi
	call	dcgettext
.LVL200:
	.loc 1 1645 0
	movq	%r13, %rdi
	.loc 1 1645 0
	movq	%rax, %r12
.LVL201:
	.loc 1 1645 0
	call	strlen
.LVL202:
	movq	%r13, %rcx
	movq	%rax, %rsi
	movq	%r12, %rdx
	xorl	%eax, %eax
	xorl	%edi, %edi
	call	error
.LVL203:
	.loc 1 1647 0
	movl	-188(%rbp), %eax
	movb	%r15b, 0(%r13,%rax)
	jmp	.L104
.LVL204:
.L210:
	movq	-224(%rbp), %r14
.LVL205:
.L108:
.LBE76:
.LBE78:
	.loc 1 1737 0
	movq	-232(%rbp), %rdi
	call	free
.LVL206:
.LBE81:
.LBE84:
	.loc 1 1349 0
	testq	%rbx, %rbx
	jne	.L101
.LBB85:
	jmp	.L200
.LVL207:
.L212:
.LBE85:
.LBB86:
.LBB82:
.LBB79:
	.loc 1 1662 0
	movq	%r12, %rdi
	movq	-224(%rbp), %r14
.LVL208:
	.loc 1 1661 0
	movq	%rax, -176(%rbp)
	.loc 1 1662 0
	call	strcache_add
.LVL209:
	movq	%rax, %rbx
.LVL210:
	jmp	.L108
.LBE79:
.LBE82:
.LBE86:
.LBE102:
	.cfi_endproc
.LFE62:
	.size	f_mtime, .-f_mtime
	.section	.rodata.str1.1
.LC19:
	.string	"touch %s"
.LC20:
	.string	"touch: open: "
.LC21:
	.string	"touch: fstat: "
.LC22:
	.string	"touch: read: "
.LC23:
	.string	"touch: lseek: "
.LC24:
	.string	"touch: write: "
	.text
	.p2align 4,,15
	.globl	notice_finished_file
	.type	notice_finished_file, @function
notice_finished_file:
.LFB58:
	.loc 1 886 0
	.cfi_startproc
.LVL211:
	pushq	%r12
	.cfi_def_cfa_offset 16
	.cfi_offset 12, -16
	pushq	%rbp
	.cfi_def_cfa_offset 24
	.cfi_offset 6, -24
	pushq	%rbx
	.cfi_def_cfa_offset 32
	.cfi_offset 3, -32
	movq	%rdi, %rbx
	subq	$160, %rsp
	.cfi_def_cfa_offset 192
	.loc 1 892 0
	movzbl	133(%rdi), %edx
	.loc 1 888 0
	movzbl	132(%rdi), %eax
	.loc 1 892 0
	orl	$4, %edx
	.loc 1 888 0
	movl	%eax, %ebp
	.loc 1 891 0
	orl	$12, %eax
	.loc 1 892 0
	movb	%dl, 133(%rdi)
	.loc 1 894 0
	movl	touch_flag(%rip), %ecx
	.loc 1 888 0
	andl	$12, %ebp
.LVL212:
	.loc 1 891 0
	movb	%al, 132(%rdi)
	.loc 1 894 0
	testl	%ecx, %ecx
	jne	.L218
	andl	$3, %eax
	movl	%eax, %edi
.LVL213:
.L219:
	.loc 1 936 0
	cmpq	$0, 120(%rbx)
	jne	.L250
	.loc 1 937 0
	movq	112(%rbx), %rax
	movq	%rax, 120(%rbx)
.L250:
	.loc 1 939 0
	cmpb	$8, %bpl
	je	.L351
.L251:
	.loc 1 939 0 is_stmt 0 discriminator 3
	testl	%ecx, %ecx
	jne	.L252
.LVL214:
.L253:
	.loc 1 962 0 is_stmt 1
	movq	104(%rbx), %rcx
	testq	%rcx, %rcx
	je	.L266
.LBB113:
	.loc 1 975 0
	movq	112(%rbx), %rsi
.LVL215:
	movq	%rcx, %rax
.LVL216:
.L263:
	.loc 1 980 0 discriminator 3
	testb	$4, 133(%rax)
	je	.L266
	.loc 1 981 0
	testq	%rsi, %rsi
	jne	.L264
	jmp	.L268
.LVL217:
	.p2align 4,,10
	.p2align 3
.L352:
	.loc 1 980 0
	testb	$4, 133(%rax)
	je	.L266
	movq	56(%rax), %rax
.LVL218:
	testq	%rax, %rax
	je	.L272
	testb	$4, 133(%rax)
	je	.L266
.LVL219:
.L268:
	movq	56(%rax), %rax
.LVL220:
	testq	%rax, %rax
	jne	.L352
.LVL221:
	.p2align 4,,10
	.p2align 3
.L272:
	.loc 1 987 0 discriminator 3
	movq	%rsi, 112(%rcx)
	.loc 1 986 0 discriminator 3
	movq	56(%rcx), %rcx
.LVL222:
	testq	%rcx, %rcx
	jne	.L272
.LVL223:
	.p2align 4,,10
	.p2align 3
.L266:
.LBE113:
	.loc 1 990 0
	cmpb	$8, %bpl
	je	.L353
	.loc 1 1008 0
	cmpb	$1, %dil
	je	.L273
.LVL224:
.L217:
	.loc 1 1012 0
	addq	$160, %rsp
	.cfi_remember_state
	.cfi_def_cfa_offset 32
	popq	%rbx
	.cfi_def_cfa_offset 24
.LVL225:
	popq	%rbp
	.cfi_def_cfa_offset 16
	popq	%r12
	.cfi_def_cfa_offset 8
	ret
.LVL226:
	.p2align 4,,10
	.p2align 3
.L351:
	.cfi_restore_state
	.loc 1 939 0 discriminator 1
	testb	$32, 133(%rbx)
	jne	.L251
.L252:
.LVL227:
.LBB114:
	.loc 1 947 0
	movl	question_flag(%rip), %ecx
.LVL228:
	testl	%ecx, %ecx
	je	.L354
.L254:
	.loc 1 947 0 is_stmt 0 discriminator 5
	movq	32(%rbx), %rax
	testq	%rax, %rax
	je	.L255
	.loc 1 949 0 is_stmt 1
	movzwl	48(%rax), %esi
.LVL229:
	testw	%si, %si
	je	.L284
	.loc 1 950 0
	movq	40(%rax), %rdx
	movzwl	%si, %ecx
	.loc 1 959 0
	movq	$-1, %rax
	.loc 1 950 0
	testb	$1, -1(%rdx,%rcx)
	je	.L256
	subl	$1, %esi
.LVL230:
	leaq	(%rdx,%rcx), %rax
	subq	%rsi, %rcx
.LVL231:
	addq	%rdx, %rcx
	jmp	.L258
.LVL232:
	.p2align 4,,10
	.p2align 3
.L259:
	movzbl	-2(%rax), %edx
	subq	$1, %rax
.LVL233:
	andl	$1, %edx
	je	.L355
.L258:
.LVL234:
	.loc 1 949 0 discriminator 2
	cmpq	%rax, %rcx
	jne	.L259
.LVL235:
.L284:
	.loc 1 959 0
	xorl	%eax, %eax
.L256:
	.loc 1 959 0 is_stmt 0 discriminator 4
	movq	%rax, 112(%rbx)
	jmp	.L253
.LVL236:
	.p2align 4,,10
	.p2align 3
.L218:
.LBE114:
	.loc 1 889 0 is_stmt 1
	xorl	%ecx, %ecx
	.loc 1 901 0
	andl	$3, %eax
	movl	%eax, %edi
	jne	.L219
	.loc 1 903 0
	movq	32(%rbx), %rax
	testq	%rax, %rax
	je	.L220
	.loc 1 903 0 is_stmt 0 discriminator 1
	testb	$1, 51(%rax)
	je	.L221
.LVL237:
.LBB115:
	.loc 1 908 0 is_stmt 1 discriminator 1
	movzwl	48(%rax), %edx
	testl	%edx, %edx
	je	.L219
	.loc 1 909 0
	movq	40(%rax), %rax
	leal	-1(%rdx), %ecx
	addq	%rax, %rcx
	testb	$1, (%rax)
	jne	.L223
	jmp	.L221
.LVL238:
	.p2align 4,,10
	.p2align 3
.L224:
	movzbl	1(%rax), %edx
	addq	$1, %rax
.LVL239:
	andl	$1, %edx
	je	.L221
.L223:
.LVL240:
	.loc 1 908 0 discriminator 2
	cmpq	%rcx, %rax
	jne	.L224
.LBE115:
	.loc 1 889 0
	xorl	%ecx, %ecx
	jmp	.L219
.LVL241:
	.p2align 4,,10
	.p2align 3
.L354:
.LBB116:
	.loc 1 947 0 discriminator 2
	movl	just_print_flag(%rip), %edx
	testl	%edx, %edx
	jne	.L254
	.loc 1 947 0 is_stmt 0 discriminator 4
	movl	touch_flag(%rip), %eax
	testl	%eax, %eax
	jne	.L254
.L255:
	.loc 1 959 0 is_stmt 1
	xorl	%eax, %eax
	.loc 1 956 0
	testb	$8, 133(%rbx)
	je	.L256
	.loc 1 956 0 is_stmt 0 discriminator 1
	xorl	%eax, %eax
	cmpq	$0, 32(%rbx)
	sete	%al
	negq	%rax
	jmp	.L256
.LVL242:
	.p2align 4,,10
	.p2align 3
.L273:
.LBE116:
	.loc 1 1011 0 is_stmt 1
	andb	$-4, 132(%rbx)
	.loc 1 1012 0
	addq	$160, %rsp
	.cfi_remember_state
	.cfi_def_cfa_offset 32
	popq	%rbx
	.cfi_def_cfa_offset 24
.LVL243:
	popq	%rbp
	.cfi_def_cfa_offset 16
.LVL244:
	popq	%r12
	.cfi_def_cfa_offset 8
	ret
.LVL245:
	.p2align 4,,10
	.p2align 3
.L353:
	.cfi_restore_state
	.loc 1 990 0 discriminator 1
	cmpb	$1, %dil
	je	.L273
	.loc 1 995 0
	movq	48(%rbx), %rbp
.LVL246:
	testq	%rbp, %rbp
	jne	.L313
	jmp	.L217
	.p2align 4,,10
	.p2align 3
.L356:
	.loc 1 1006 0
	xorl	%esi, %esi
	call	f_mtime
.LVL247:
.L276:
	.loc 1 995 0 discriminator 2
	movq	0(%rbp), %rbp
.LVL248:
	testq	%rbp, %rbp
	je	.L217
.L313:
	.loc 1 997 0
	movq	16(%rbp), %rdi
	movzbl	132(%rdi), %eax
	.loc 1 998 0
	movzbl	133(%rdi), %edx
	.loc 1 997 0
	orl	$12, %eax
	.loc 1 998 0
	orl	$4, %edx
	.loc 1 997 0
	movb	%al, 132(%rdi)
	.loc 1 998 0
	movb	%dl, 133(%rdi)
	.loc 1 999 0
	andl	$-4, %eax
	movzbl	132(%rbx), %ecx
	andl	$3, %ecx
	orl	%ecx, %eax
	.loc 1 1001 0
	andl	$32, %edx
	.loc 1 999 0
	movb	%al, 132(%rdi)
	.loc 1 1001 0
	jne	.L276
	jmp	.L356
.LVL249:
	.p2align 4,,10
	.p2align 3
.L221:
	.loc 1 915 0
	testb	$32, 133(%rbx)
	je	.L357
.L279:
	.loc 1 916 0
	andb	$-4, 132(%rbx)
	xorl	%edi, %edi
	.loc 1 889 0
	xorl	%ecx, %ecx
	jmp	.L219
.LVL250:
	.p2align 4,,10
	.p2align 3
.L355:
.LBB117:
	.loc 1 959 0
	movq	$-1, %rax
	jmp	.L256
.LVL251:
	.p2align 4,,10
	.p2align 3
.L357:
.LBE117:
.LBB118:
.LBB119:
	.loc 1 1163 0
	movl	silent_flag(%rip), %edi
	testl	%edi, %edi
	je	.L358
.L225:
	.loc 1 1167 0
	movl	just_print_flag(%rip), %esi
	testl	%esi, %esi
	je	.L359
.L346:
.LBB120:
.LBB121:
	xorl	%edi, %edi
.L228:
.LBE121:
.LBE120:
.LBE119:
.LBE118:
	.loc 1 921 0
	movzbl	132(%rbx), %eax
	.loc 1 925 0
	addl	$1, commands_started(%rip)
.LVL252:
	.loc 1 931 0
	movl	$1, %ecx
	.loc 1 921 0
	andl	$-4, %eax
	orl	%edi, %eax
	movb	%al, 132(%rbx)
	andl	$3, %eax
	movl	%eax, %edi
	jmp	.L219
.LVL253:
.L359:
.LBB132:
.LBB130:
	.loc 1 1171 0
	movq	(%rbx), %rdi
	call	ar_name
.LVL254:
	testl	%eax, %eax
	je	.L316
	jmp	.L360
.LVL255:
	.p2align 4,,10
	.p2align 3
.L361:
.LBB128:
	.loc 1 1178 0
	call	__errno_location
.LVL256:
	.loc 1 1178 0
	cmpl	$4, (%rax)
	jne	.L230
.LVL257:
.L316:
	.loc 1 1178 0
	movq	(%rbx), %rdi
	xorl	%eax, %eax
	movl	$438, %edx
	movl	$66, %esi
	call	open
.LVL258:
	cmpl	$-1, %eax
	movl	%eax, %r12d
.LVL259:
	je	.L361
	.loc 1 1179 0
	testl	%eax, %eax
	js	.L230
.LBB126:
	.loc 1 1184 0
	movb	$120, 15(%rsp)
	jmp	.L233
.LVL260:
	.p2align 4,,10
	.p2align 3
.L362:
	.loc 1 1187 0
	call	__errno_location
.LVL261:
	.loc 1 1187 0
	cmpl	$4, (%rax)
	jne	.L234
.L233:
.LVL262:
.LBB122:
.LBB123:
	.loc 2 469 0
	leaq	16(%rsp), %rdx
.LVL263:
	movl	%r12d, %esi
	movl	$1, %edi
	call	__fxstat
.LVL264:
.LBE123:
.LBE122:
	.loc 1 1187 0
	cmpl	$-1, %eax
	je	.L362
	.loc 1 1188 0
	testl	%eax, %eax
	jns	.L235
	jmp	.L234
.LVL265:
	.p2align 4,,10
	.p2align 3
.L363:
	.loc 1 1191 0
	call	__errno_location
.LVL266:
	.loc 1 1191 0
	cmpl	$4, (%rax)
	jne	.L238
.L235:
	leaq	15(%rsp), %rsi
	movl	$1, %edx
	movl	%r12d, %edi
	call	read
.LVL267:
	cmpl	$-1, %eax
	je	.L363
	.loc 1 1192 0
	testl	%eax, %eax
	jns	.L315
	jmp	.L238
.LVL268:
	.p2align 4,,10
	.p2align 3
.L364:
.LBB124:
	.loc 1 1196 0
	call	__errno_location
.LVL269:
	.loc 1 1196 0
	cmpl	$4, (%rax)
	jne	.L241
.L315:
	xorl	%edx, %edx
	xorl	%esi, %esi
	movl	%r12d, %edi
	call	lseek
.LVL270:
	cmpq	$-1, %rax
	je	.L364
	.loc 1 1197 0
	testq	%rax, %rax
	jns	.L314
	jmp	.L241
.LVL271:
	.p2align 4,,10
	.p2align 3
.L365:
.LBE124:
	.loc 1 1200 0
	call	__errno_location
.LVL272:
	.loc 1 1200 0
	cmpl	$4, (%rax)
	jne	.L244
.L314:
	leaq	15(%rsp), %rsi
	movl	$1, %edx
	movl	%r12d, %edi
	call	write
.LVL273:
	cmpl	$-1, %eax
	je	.L365
	.loc 1 1201 0
	testl	%eax, %eax
	js	.L244
	.loc 1 1205 0
	cmpq	$0, 64(%rsp)
	jne	.L246
	.loc 1 1207 0
	movl	%r12d, %edi
	call	close
.LVL274:
	jmp	.L248
.LVL275:
	.p2align 4,,10
	.p2align 3
.L366:
	.loc 1 1208 0
	call	__errno_location
.LVL276:
	.loc 1 1208 0
	cmpl	$4, (%rax)
	jne	.L249
.L248:
	.loc 1 1208 0
	movq	(%rbx), %rdi
	xorl	%eax, %eax
	movl	$438, %edx
	movl	$514, %esi
	call	open
.LVL277:
	cmpl	$-1, %eax
	movl	%eax, %r12d
.LVL278:
	je	.L366
	.loc 1 1209 0
	testl	%eax, %eax
	js	.L249
.LVL279:
.L246:
	.loc 1 1212 0
	movl	%r12d, %edi
	call	close
.LVL280:
	jmp	.L346
.LVL281:
.L358:
.LBE126:
.LBE128:
	.loc 1 1164 0
	movq	(%rbx), %r12
	movq	%r12, %rdi
	call	strlen
.LVL282:
	movq	%r12, %rcx
	movq	%rax, %rsi
	movl	$.LC19, %edx
	xorl	%edi, %edi
	xorl	%eax, %eax
	call	message
.LVL283:
	jmp	.L225
.LVL284:
.L220:
.LBE130:
.LBE132:
	.loc 1 915 0
	movl	%edx, %edi
	andl	$32, %edi
	je	.L219
	jmp	.L279
.LVL285:
.L360:
.LBB133:
.LBB131:
	.loc 1 1172 0
	movq	(%rbx), %rdi
	call	ar_touch
.LVL286:
	testl	%eax, %eax
	movl	$3, %edi
	jne	.L228
	jmp	.L346
.LVL287:
.L230:
.LBB129:
	.loc 1 1180 0
	movq	(%rbx), %rsi
	movl	$.LC20, %edi
	call	perror_with_name
.LVL288:
	movl	$3, %edi
	jmp	.L228
.L234:
.LBB127:
	.loc 1 1189 0
	movq	(%rbx), %rsi
	movl	$.LC21, %edi
	call	perror_with_name
.LVL289:
.L236:
	movl	$3, %edi
	jmp	.L228
.L238:
	.loc 1 1193 0
	movq	(%rbx), %rsi
	movl	$.LC22, %edi
	call	perror_with_name
.LVL290:
	jmp	.L236
.L241:
.LBB125:
	.loc 1 1198 0
	movq	(%rbx), %rsi
	movl	$.LC23, %edi
	call	perror_with_name
.LVL291:
	jmp	.L236
.L244:
.LBE125:
	.loc 1 1202 0
	movq	(%rbx), %rsi
	movl	$.LC24, %edi
	call	perror_with_name
.LVL292:
	jmp	.L236
.L249:
	.loc 1 1210 0
	movq	(%rbx), %rsi
	movl	$.LC20, %edi
	call	perror_with_name
.LVL293:
	jmp	.L236
.LVL294:
	.p2align 4,,10
	.p2align 3
.L264:
.LBE127:
.LBE129:
.LBE131:
.LBE133:
.LBB134:
	.loc 1 982 0
	movq	112(%rax), %rdx
	testq	%rdx, %rdx
	je	.L288
	cmpq	%rsi, %rdx
	ja	.L288
.LVL295:
.L269:
	.loc 1 980 0 discriminator 2
	movq	56(%rax), %rax
.LVL296:
	testq	%rax, %rax
	jne	.L263
	jmp	.L272
	.p2align 4,,10
	.p2align 3
.L288:
	.loc 1 982 0
	movq	%rdx, %rsi
.LVL297:
	jmp	.L269
.LBE134:
	.cfi_endproc
.LFE58:
	.size	notice_finished_file, .-notice_finished_file
	.section	.rodata.str1.8
	.align 8
.LC25:
	.string	"Found an implicit rule for '%s'.\n"
	.align 8
.LC26:
	.string	"No implicit rule found for '%s'.\n"
	.align 8
.LC27:
	.string	"Using default commands for '%s'.\n"
	.align 8
.LC28:
	.string	"Circular %s <- %s dependency dropped."
	.text
	.p2align 4,,15
	.type	check_dep, @function
check_dep:
.LFB59:
	.loc 1 1023 0
	.cfi_startproc
.LVL298:
	pushq	%r15
	.cfi_def_cfa_offset 16
	.cfi_offset 15, -16
	pushq	%r14
	.cfi_def_cfa_offset 24
	.cfi_offset 14, -24
	.loc 1 1028 0
	leal	1(%rsi), %eax
	.loc 1 1023 0
	pushq	%r13
	.cfi_def_cfa_offset 32
	.cfi_offset 13, -32
	pushq	%r12
	.cfi_def_cfa_offset 40
	.cfi_offset 12, -40
	movq	%rcx, %r14
	pushq	%rbp
	.cfi_def_cfa_offset 48
	.cfi_offset 6, -48
	pushq	%rbx
	.cfi_def_cfa_offset 56
	.cfi_offset 3, -56
	.loc 1 1028 0
	movl	%eax, %esi
.LVL299:
	.loc 1 1023 0
	movq	%rdi, %r12
	subq	$72, %rsp
	.cfi_def_cfa_offset 128
	.loc 1 1028 0
	movl	%eax, 44(%rsp)
.LVL300:
	.loc 1 1029 0
	movq	104(%rdi), %rax
.LVL301:
	.loc 1 1023 0
	movq	%rdx, 32(%rsp)
	.loc 1 1029 0
	testq	%rax, %rax
	cmove	%rdi, %rax
	orb	$2, 133(%rax)
.LVL302:
	.loc 1 1035 0
	movzbl	133(%rdi), %eax
	movl	%eax, %edx
.LVL303:
	andl	$96, %edx
	cmpb	$64, %dl
	je	.L369
.LBB135:
	.loc 1 1040 0
	call	update_file
.LVL304:
	.loc 1 1041 0
	movq	%r12, %rbp
	.loc 1 1040 0
	movl	%eax, %ebx
.LVL305:
	.loc 1 1041 0
	jmp	.L370
.LVL306:
	.p2align 4,,10
	.p2align 3
.L404:
	movq	%rax, %rbp
.LVL307:
.L370:
	.loc 1 1041 0 is_stmt 0 discriminator 1
	movq	72(%rbp), %rax
	testq	%rax, %rax
	jne	.L404
	.loc 1 1042 0 is_stmt 1
	movq	112(%rbp), %rax
	testq	%rax, %rax
	je	.L451
	.loc 1 1044 0
	cmpq	$1, %rax
	je	.L413
.L460:
	cmpq	%rax, 32(%rsp)
	jb	.L413
.LVL308:
.L373:
.LBE135:
	.loc 1 1149 0
	movq	104(%rbp), %rax
	testq	%rax, %rax
	cmove	%rbp, %rax
	andb	$-3, 133(%rax)
	.loc 1 1150 0
	movq	104(%r12), %rax
	testq	%rax, %rax
	cmove	%r12, %rax
	andb	$-3, 133(%rax)
	.loc 1 1153 0
	addq	$72, %rsp
	.cfi_remember_state
	.cfi_def_cfa_offset 56
	movl	%ebx, %eax
	popq	%rbx
	.cfi_def_cfa_offset 48
.LVL309:
	popq	%rbp
	.cfi_def_cfa_offset 40
.LVL310:
	popq	%r12
	.cfi_def_cfa_offset 32
.LVL311:
	popq	%r13
	.cfi_def_cfa_offset 24
	popq	%r14
	.cfi_def_cfa_offset 16
.LVL312:
	popq	%r15
	.cfi_def_cfa_offset 8
	ret
.LVL313:
	.p2align 4,,10
	.p2align 3
.L413:
	.cfi_restore_state
.LBB136:
	.loc 1 1045 0
	movl	$1, (%r14)
	jmp	.L373
.LVL314:
	.p2align 4,,10
	.p2align 3
.L369:
.LBE136:
.LBB137:
	.loc 1 1052 0
	testb	$32, %al
	jne	.L375
	.loc 1 1052 0 is_stmt 0 discriminator 1
	cmpq	$0, 32(%rdi)
	je	.L452
.LVL315:
.L377:
.LBE137:
.LBB146:
	movq	%r12, %rbp
	jmp	.L383
.LVL316:
	.p2align 4,,10
	.p2align 3
.L406:
.LBE146:
.LBB147:
	movq	%rax, %rbp
.LVL317:
.L383:
	.loc 1 1067 0 is_stmt 1 discriminator 1
	movq	72(%rbp), %rax
	testq	%rax, %rax
	jne	.L406
	.loc 1 1068 0
	movq	112(%rbp), %rax
	testq	%rax, %rax
	je	.L453
.L384:
	.loc 1 1070 0
	cmpq	$1, %rax
	je	.L386
	cmpq	%rax, 32(%rsp)
	jnb	.L386
	.loc 1 1073 0
	movl	$1, (%r14)
.LBE147:
	.loc 1 1026 0
	xorl	%ebx, %ebx
.LBB148:
	jmp	.L373
.LVL318:
.L452:
	.loc 1 1052 0 discriminator 2
	testb	$1, %al
	jne	.L378
	.loc 1 1054 0
	movl	44(%rsp), %esi
.LVL319:
	call	try_implicit_rule
.LVL320:
	testl	%eax, %eax
	je	.L379
	.loc 1 1055 0
	testb	$8, db_level(%rip)
	jne	.L454
.L380:
	.loc 1 1058 0
	orb	$1, 133(%r12)
	.p2align 4,,10
	.p2align 3
.L375:
	.loc 1 1060 0
	cmpq	$0, 32(%r12)
	jne	.L377
	movzbl	133(%r12), %eax
.L378:
	.loc 1 1060 0 is_stmt 0 discriminator 1
	testb	$8, %al
	jne	.L377
	.loc 1 1061 0 is_stmt 1
	movq	default_file(%rip), %rax
	testq	%rax, %rax
	je	.L377
	.loc 1 1061 0 is_stmt 0 discriminator 1
	movq	32(%rax), %rax
	testq	%rax, %rax
	je	.L377
	.loc 1 1063 0 is_stmt 1
	testb	$8, db_level(%rip)
	jne	.L455
.L382:
	.loc 1 1064 0
	movq	%rax, 32(%r12)
	jmp	.L377
.LVL321:
	.p2align 4,,10
	.p2align 3
.L386:
.LBB138:
	.loc 1 1085 0
	movzbl	132(%rbp), %eax
	andl	$12, %eax
	cmpb	$8, %al
	je	.L387
	.loc 1 1089 0
	cmpb	$4, %al
	je	.L456
.L388:
	.loc 1 1092 0
	xorl	%esi, %esi
	movq	%rbp, %rdi
	call	set_command_state
.LVL322:
.L387:
	.loc 1 1096 0
	movq	24(%rbp), %r15
.LVL323:
	.loc 1 1097 0
	testq	%r15, %r15
	je	.L408
	movl	$0, 40(%rsp)
	xorl	%r13d, %r13d
	xorl	%ebx, %ebx
	jmp	.L401
.LVL324:
	.p2align 4,,10
	.p2align 3
.L458:
.LBB139:
	.loc 1 1104 0
	movl	$5, %edx
	movl	$.LC28, %esi
	xorl	%edi, %edi
	call	dcgettext
.LVL325:
	.loc 1 1104 0
	movq	0(%rbp), %rcx
	.loc 1 1104 0
	movq	%rax, 24(%rsp)
	.loc 1 1104 0
	movq	%rcx, %rdi
	movq	%rcx, 16(%rsp)
	call	strlen
.LVL326:
	movq	%rax, (%rsp)
	movq	16(%r15), %rax
	movq	(%rax), %r8
	movq	%r8, %rdi
	movq	%r8, 8(%rsp)
	call	strlen
.LVL327:
	movq	(%rsp), %rsi
	movq	8(%rsp), %r8
	xorl	%edi, %edi
	movq	16(%rsp), %rcx
	movq	24(%rsp), %rdx
	addq	%rax, %rsi
	xorl	%eax, %eax
	call	error
.LVL328:
	.loc 1 1106 0
	testq	%r13, %r13
	.loc 1 1108 0
	movq	(%r15), %rax
	.loc 1 1106 0
	je	.L457
	.loc 1 1115 0
	movq	%r15, %rdi
	.loc 1 1114 0
	movq	%rax, 0(%r13)
	.loc 1 1115 0
	call	free
.LVL329:
	.loc 1 1116 0
	movq	0(%r13), %r15
.LVL330:
.L393:
.LBE139:
	.loc 1 1097 0
	testq	%r15, %r15
	je	.L400
.LVL331:
.L401:
.LBB140:
	.loc 1 1102 0
	movq	16(%r15), %rdi
	movq	104(%rdi), %rax
	testq	%rax, %rax
	cmove	%rdi, %rax
	testb	$2, 133(%rax)
	jne	.L458
	.loc 1 1122 0
	movl	(%r14), %eax
	.loc 1 1123 0
	movq	32(%rsp), %rdx
	leaq	60(%rsp), %rcx
	movl	44(%rsp), %esi
	.loc 1 1121 0
	movq	%rbp, 96(%rdi)
	.loc 1 1122 0
	movl	%eax, 60(%rsp)
	.loc 1 1123 0
	call	check_dep
.LVL332:
	cmpl	%eax, %ebx
	cmovb	%eax, %ebx
.LVL333:
	.loc 1 1127 0
	testb	$2, 33(%r15)
	jne	.L394
	.loc 1 1128 0
	movl	60(%rsp), %eax
.LVL334:
	movl	%eax, (%r14)
.L394:
	.loc 1 1129 0 discriminator 1
	movq	16(%r15), %rax
	movq	72(%rax), %rdx
	testq	%rdx, %rdx
	jne	.L396
	jmp	.L459
	.p2align 4,,10
	.p2align 3
.L411:
	movq	%rax, %rdx
.L396:
	.loc 1 1129 0 is_stmt 0 discriminator 2
	movq	72(%rdx), %rax
	testq	%rax, %rax
	jne	.L411
	movq	%rdx, 16(%r15)
.L395:
	.loc 1 1130 0 is_stmt 1
	testl	%ebx, %ebx
	je	.L397
	.loc 1 1130 0 is_stmt 0 discriminator 1
	movl	keep_going_flag(%rip), %ecx
	testl	%ecx, %ecx
	je	.L400
.L397:
	.loc 1 1134 0 is_stmt 1
	movzbl	132(%rdx), %eax
	movq	%r15, %r13
.LVL335:
	.loc 1 1138 0
	movq	(%r15), %r15
.LVL336:
	.loc 1 1134 0
	andl	$12, %eax
	subl	$4, %eax
	.loc 1 1135 0
	testb	$-8, %al
	movl	$1, %eax
	cmovne	40(%rsp), %eax
.LBE140:
	.loc 1 1097 0
	testq	%r15, %r15
.LBB141:
	.loc 1 1135 0
	movl	%eax, 40(%rsp)
.LVL337:
.LBE141:
	.loc 1 1097 0
	jne	.L401
.LVL338:
.L400:
	.loc 1 1141 0
	movl	40(%rsp), %eax
	testl	%eax, %eax
	je	.L373
	.loc 1 1145 0
	movl	$1, %esi
	movq	%rbp, %rdi
	call	set_command_state
.LVL339:
	jmp	.L373
	.p2align 4,,10
	.p2align 3
.L457:
.LBB142:
	.loc 1 1109 0
	movq	%r15, %rdi
	.loc 1 1108 0
	movq	%rax, 24(%rbp)
	.loc 1 1109 0
	call	free
.LVL340:
	.loc 1 1110 0
	movq	24(%rbp), %r15
.LVL341:
	jmp	.L393
.LVL342:
.L451:
.LBE142:
.LBE138:
.LBE148:
.LBB149:
	.loc 1 1042 0 discriminator 1
	movl	$1, %esi
	movq	%rbp, %rdi
	call	f_mtime
.LVL343:
	.loc 1 1043 0 discriminator 1
	jmp	.L372
	.p2align 4,,10
	.p2align 3
.L405:
	movq	%rdx, %rbp
.LVL344:
.L372:
	movq	72(%rbp), %rdx
	testq	%rdx, %rdx
	jne	.L405
	.loc 1 1044 0
	cmpq	$1, %rax
	jne	.L460
	jmp	.L413
.LVL345:
.L459:
.LBE149:
.LBB150:
.LBB144:
.LBB143:
	.loc 1 1129 0
	movq	%rax, %rdx
	jmp	.L395
.LVL346:
.L453:
.LBE143:
.LBE144:
	.loc 1 1068 0 discriminator 1
	movl	$1, %esi
	movq	%rbp, %rdi
	call	f_mtime
.LVL347:
	.loc 1 1069 0 discriminator 1
	jmp	.L385
	.p2align 4,,10
	.p2align 3
.L407:
	movq	%rdx, %rbp
.LVL348:
.L385:
	movq	72(%rbp), %rdx
	testq	%rdx, %rdx
	jne	.L407
	jmp	.L384
.LVL349:
.L456:
.LBB145:
	.loc 1 1090 0
	movl	considered(%rip), %esi
	testl	%esi, %esi
	sete	%al
	leal	0(,%rax,8), %edx
	movzbl	134(%rbp), %eax
	andl	$-9, %eax
	orl	%edx, %eax
	movb	%al, 134(%rbp)
	jmp	.L388
.LVL350:
.L408:
.LBE145:
.LBE150:
	.loc 1 1026 0
	xorl	%ebx, %ebx
	jmp	.L373
.LVL351:
.L455:
.LBB151:
	.loc 1 1063 0 discriminator 1
	movl	44(%rsp), %edi
	call	print_spaces
.LVL352:
	movq	(%r12), %rbx
	.loc 1 1063 0 discriminator 1
	movl	$5, %edx
	movl	$.LC27, %esi
	xorl	%edi, %edi
	call	dcgettext
.LVL353:
	.loc 1 1063 0 discriminator 1
	movq	%rbx, %rsi
	movq	%rax, %rdi
	xorl	%eax, %eax
	call	printf
.LVL354:
	.loc 1 1063 0 discriminator 1
	movq	stdout(%rip), %rdi
	call	fflush
.LVL355:
	movq	default_file(%rip), %rax
	movq	32(%rax), %rax
	jmp	.L382
.L379:
	.loc 1 1057 0
	testb	$8, db_level(%rip)
	je	.L380
	.loc 1 1057 0 is_stmt 0 discriminator 1
	movl	44(%rsp), %edi
	call	print_spaces
.LVL356:
	movq	(%r12), %rbx
	.loc 1 1057 0 is_stmt 1 discriminator 1
	movl	$5, %edx
	movl	$.LC26, %esi
.L449:
	xorl	%edi, %edi
	call	dcgettext
.LVL357:
	.loc 1 1057 0 discriminator 1
	movq	%rbx, %rsi
	movq	%rax, %rdi
	xorl	%eax, %eax
	call	printf
.LVL358:
	.loc 1 1057 0 discriminator 1
	movq	stdout(%rip), %rdi
	call	fflush
.LVL359:
	jmp	.L380
.L454:
	.loc 1 1055 0 discriminator 1
	movl	44(%rsp), %edi
	call	print_spaces
.LVL360:
	movq	(%r12), %rbx
	.loc 1 1055 0 discriminator 1
	movl	$5, %edx
	movl	$.LC25, %esi
	jmp	.L449
.LBE151:
	.cfi_endproc
.LFE59:
	.size	check_dep, .-check_dep
	.section	.rodata.str1.1
.LC29:
	.string	"Pruning file '%s'.\n"
	.section	.rodata.str1.8
	.align 8
.LC30:
	.string	"Considering target file '%s'.\n"
	.align 8
.LC31:
	.string	"Recently tried and failed to update file '%s'.\n"
	.align 8
.LC32:
	.string	"File '%s' was considered already.\n"
	.section	.rodata.str1.1
.LC33:
	.string	"Still updating file '%s'.\n"
.LC34:
	.string	"Finished updating file '%s'.\n"
.LC35:
	.string	"File '%s' does not exist.\n"
	.section	.rodata.str1.8
	.align 8
.LC36:
	.string	"*** Warning: .LOW_RESOLUTION_TIME file '%s' has a high resolution time stamp"
	.align 8
.LC37:
	.string	"Using default recipe for '%s'.\n"
	.align 8
.LC38:
	.string	"Finished prerequisites of target file '%s'.\n"
	.align 8
.LC39:
	.string	"The prerequisites of '%s' are being made.\n"
	.align 8
.LC40:
	.string	"Giving up on target file '%s'.\n"
	.align 8
.LC41:
	.string	"Target '%s' not remade because of errors."
	.align 8
.LC42:
	.string	"Prerequisite '%s' is order-only for target '%s'.\n"
	.align 8
.LC43:
	.string	"Prerequisite '%s' of target '%s' does not exist.\n"
	.align 8
.LC44:
	.string	"Prerequisite '%s' is newer than target '%s'.\n"
	.align 8
.LC45:
	.string	"Prerequisite '%s' is older than target '%s'.\n"
	.align 8
.LC46:
	.string	"Target '%s' is double-colon and has no prerequisites.\n"
	.align 8
.LC47:
	.string	"No recipe for '%s' and no prerequisites actually changed.\n"
	.align 8
.LC48:
	.string	"Making '%s' due to always-make flag.\n"
	.section	.rodata.str1.1
.LC49:
	.string	"No need to remake target '%s'"
.LC50:
	.string	"; using VPATH name '%s'"
.LC51:
	.string	"Must remake target '%s'.\n"
.LC52:
	.string	"  Ignoring VPATH name '%s'.\n"
.LC53:
	.string	"Recipe of '%s' is being run.\n"
	.section	.rodata.str1.8
	.align 8
.LC54:
	.string	"Failed to remake target file '%s'.\n"
	.align 8
.LC55:
	.string	"Successfully remade target file '%s'.\n"
	.align 8
.LC56:
	.string	"Target file '%s' needs to be remade under -q.\n"
	.text
	.p2align 4,,15
	.type	update_file, @function
update_file:
.LFB55:
	.loc 1 304 0
	.cfi_startproc
.LVL361:
	pushq	%r15
	.cfi_def_cfa_offset 16
	.cfi_offset 15, -16
	pushq	%r14
	.cfi_def_cfa_offset 24
	.cfi_offset 14, -24
	pushq	%r13
	.cfi_def_cfa_offset 32
	.cfi_offset 13, -32
	pushq	%r12
	.cfi_def_cfa_offset 40
	.cfi_offset 12, -40
	pushq	%rbp
	.cfi_def_cfa_offset 48
	.cfi_offset 6, -48
	pushq	%rbx
	.cfi_def_cfa_offset 56
	.cfi_offset 3, -56
	subq	$152, %rsp
	.cfi_def_cfa_offset 208
	.loc 1 308 0
	movq	104(%rdi), %rax
	.loc 1 304 0
	movl	%esi, 52(%rsp)
	.loc 1 308 0
	testq	%rax, %rax
	cmove	%rdi, %rax
	.loc 1 314 0
	movzbl	134(%rax), %edx
	.loc 1 308 0
	movq	%rax, 40(%rsp)
.LVL362:
	.loc 1 314 0
	movl	considered(%rip), %eax
.LVL363:
	movl	%edx, %ecx
	shrb	$3, %cl
	andl	$1, %ecx
	cmpl	%eax, %ecx
	je	.L463
.LVL364:
.L466:
.LBB169:
.LBB170:
.LBB171:
	.loc 1 483 0
	movl	52(%rsp), %esi
.LBE171:
.LBE170:
.LBE169:
	movl	$0, 72(%rsp)
.LBB213:
.LBB207:
.LBB201:
	addl	$1, %esi
	movl	%esi, 48(%rsp)
.LVL365:
.L464:
.LBE201:
.LBE207:
	.loc 1 333 0
	movq	40(%rsp), %rsi
	andl	$1, %eax
	leal	0(,%rax,8), %edx
	movzbl	134(%rsi), %eax
	movb	%al, (%rsp)
	andl	$-9, %eax
	orl	%edx, %eax
	movb	%al, 134(%rsi)
.LVL366:
.LBB208:
.LBB202:
	.loc 1 441 0
	testb	$2, db_level(%rip)
	jne	.L818
.LVL367:
.L470:
	.loc 1 443 0
	movq	40(%rsp), %rax
	testb	$4, 133(%rax)
	je	.L471
	.loc 1 445 0
	movzbl	132(%rax), %eax
	andl	$3, %eax
	cmpl	$1, %eax
	jle	.L472
	.loc 1 447 0
	testb	$2, db_level(%rip)
	jne	.L819
.L473:
	.loc 1 454 0
	movq	40(%rsp), %rax
	movzbl	134(%rax), %eax
	movb	%al, (%rsp)
	andl	$17, %eax
	cmpb	$16, %al
	je	.L820
.L474:
	.loc 1 457 0
	movq	40(%rsp), %rax
	movzbl	132(%rax), %r15d
	movq	%rax, %rdx
	andl	$3, %r15d
	jmp	.L598
.LVL368:
	.p2align 4,,10
	.p2align 3
.L629:
.LBE202:
.LBE208:
	movq	%rax, %rdx
.LVL369:
.L598:
	.loc 1 336 0 discriminator 1
	movq	72(%rdx), %rax
	testq	%rax, %rax
	jne	.L629
	.loc 1 342 0
	testl	%r15d, %r15d
	movq	%rdx, 40(%rsp)
	je	.L599
	.loc 1 342 0 is_stmt 0 discriminator 1
	movl	keep_going_flag(%rip), %ecx
	testl	%ecx, %ecx
	je	.L630
.L599:
	.loc 1 346 0 is_stmt 1
	movq	40(%rsp), %rsi
	movzbl	132(%rsi), %eax
	movb	%al, (%rsp)
	andl	$12, %eax
	subl	$4, %eax
	.loc 1 345 0
	testb	$-8, %al
	je	.L600
	movl	72(%rsp), %eax
	cmpl	%r15d, %eax
	cmovnb	%eax, %r15d
.LBE213:
	.loc 1 329 0
	movq	56(%rsi), %rax
	movl	%r15d, 72(%rsp)
.LVL370:
	testq	%rax, %rax
	movq	%rax, 40(%rsp)
.LVL371:
	je	.L461
	movl	considered(%rip), %eax
.LVL372:
	jmp	.L464
.LVL373:
.L471:
.LBB214:
.LBB209:
.LBB203:
	.loc 1 464 0
	movq	40(%rsp), %rax
	movzbl	132(%rax), %r15d
	movl	%r15d, %eax
	shrb	$2, %al
	andl	$3, %eax
	cmpb	$2, %al
	je	.L478
	ja	.L821
	.loc 1 481 0
	movq	40(%rsp), %rsi
	movzbl	134(%rsi), %eax
	movl	%eax, %edx
	andl	$-17, %eax
	andl	$1, %edx
	sall	$4, %edx
	orl	%edx, %eax
	movb	%al, 134(%rsi)
.LVL374:
	.loc 1 486 0
	movq	104(%rsi), %rax
	testq	%rax, %rax
	cmove	%rsi, %rax
	orb	$2, 133(%rax)
.LVL375:
	.loc 1 498 0
	movq	112(%rsi), %rax
	testq	%rax, %rax
	movq	%rax, 64(%rsp)
	je	.L822
.LVL376:
.L484:
	.loc 1 486 0
	movq	40(%rsp), %rbx
	jmp	.L485
.LVL377:
.L610:
	.loc 1 499 0
	movq	%rax, %rbx
.LVL378:
.L485:
	movq	72(%rbx), %rax
	testq	%rax, %rax
	jne	.L610
	.loc 1 500 0
	movq	64(%rsp), %rax
	cmpq	$1, %rax
	sete	79(%rsp)
	movzbl	79(%rsp), %esi
	movl	%esi, 16(%rsp)
.LVL379:
	.loc 1 501 0
	je	.L823
	.loc 1 503 0
	movq	64(%rsp), %rsi
.LVL380:
	movq	%rsi, %rax
	movq	%rsi, 8(%rsp)
	subq	$3, %rax
	cmpq	$-73741825, %rax
	ja	.L487
	.loc 1 504 0
	cmpb	$0, 132(%rbx)
	js	.L824
.LVL381:
.L487:
	.loc 1 520 0
	movzbl	133(%rbx), %eax
	testb	$32, %al
	jne	.L489
	cmpq	$0, 32(%rbx)
	je	.L825
.LVL382:
.L491:
	.loc 1 541 0
	movq	48(%rbx), %rax
	.loc 1 433 0
	movl	16(%rsp), %ebp
	.loc 1 439 0
	xorl	%r13d, %r13d
	.loc 1 540 0
	movq	%rbx, 112(%rsp)
	.loc 1 433 0
	xorl	%r15d, %r15d
	movq	%rbx, (%rsp)
	.loc 1 541 0
	movq	%rax, 56(%rsp)
	movq	%rax, 96(%rsp)
.LVL383:
	movq	%rbx, %rax
.LVL384:
.L524:
.LBB172:
	.loc 1 548 0
	movq	24(%rax), %rbx
.LVL385:
	.loc 1 551 0
	xorl	%r14d, %r14d
	testq	%rbx, %rbx
	movq	%rbx, %r12
	je	.L498
.LVL386:
	.p2align 4,,10
	.p2align 3
.L726:
.LBB173:
	.loc 1 558 0
	movq	16(%r12), %rax
	movq	72(%rax), %rdi
	testq	%rdi, %rdi
	jne	.L733
	jmp	.L826
	.p2align 4,,10
	.p2align 3
.L614:
	movq	%rax, %rdi
.L733:
	movq	72(%rdi), %rax
	testq	%rax, %rax
	jne	.L614
	.loc 1 560 0
	movq	112(%rdi), %rbx
	movq	%rdi, 16(%r12)
	testq	%rbx, %rbx
	jne	.L827
.L605:
	movl	$1, %esi
	call	f_mtime
.LVL387:
	movq	%rax, %rbx
.LVL388:
	.loc 1 561 0
	movq	16(%r12), %rax
.LVL389:
	movq	72(%rax), %rdi
	testq	%rdi, %rdi
	jne	.L502
	jmp	.L828
	.p2align 4,,10
	.p2align 3
.L616:
	movq	%rax, %rdi
.L502:
	movq	72(%rdi), %rax
	testq	%rax, %rax
	jne	.L616
	movq	%rdi, 16(%r12)
.L501:
	.loc 1 563 0
	movq	104(%rdi), %rax
	testq	%rax, %rax
	cmove	%rdi, %rax
	testb	$2, 133(%rax)
	jne	.L829
	.loc 1 582 0
	movl	rebuilding_makefiles(%rip), %r14d
.LVL390:
	.loc 1 578 0
	movq	(%rsp), %rcx
	.loc 1 579 0
	movl	%ebp, 92(%rsp)
	.loc 1 582 0
	testl	%r14d, %r14d
	.loc 1 578 0
	movq	%rcx, 96(%rdi)
	.loc 1 582 0
	je	.L508
	.loc 1 585 0
	movzbl	134(%rcx), %esi
	.loc 1 584 0
	movzbl	134(%rdi), %eax
	.loc 1 585 0
	movl	%esi, %edx
	.loc 1 584 0
	movl	%eax, %r14d
	.loc 1 585 0
	andl	$-2, %eax
	andl	$1, %edx
	movb	%sil, 16(%rsp)
	.loc 1 584 0
	andl	$1, %r14d
.LVL391:
	.loc 1 585 0
	orl	%edx, %eax
	movb	%al, 134(%rdi)
.LVL392:
.L508:
	.loc 1 588 0
	movq	8(%rsp), %rdx
	movl	48(%rsp), %esi
	leaq	92(%rsp), %rcx
	call	check_dep
.LVL393:
	.loc 1 593 0
	movl	rebuilding_makefiles(%rip), %edi
	cmpl	%eax, %r15d
	cmovb	%eax, %r15d
.LVL394:
	.loc 1 594 0
	movq	16(%r12), %rax
.LVL395:
	.loc 1 593 0
	testl	%edi, %edi
	je	.L510
	.loc 1 594 0
	movzbl	134(%rax), %edx
	andl	$1, %r14d
.LVL396:
	andl	$-2, %edx
	orl	%edx, %r14d
	movb	%r14b, 134(%rax)
.L510:
	.loc 1 599 0
	movq	72(%rax), %rdi
	.loc 1 597 0
	testb	$2, 33(%r12)
	cmove	92(%rsp), %ebp
.LVL397:
	.loc 1 599 0
	testq	%rdi, %rdi
	jne	.L513
	jmp	.L830
	.p2align 4,,10
	.p2align 3
.L619:
	movq	%rax, %rdi
.L513:
	movq	72(%rdi), %rax
	testq	%rax, %rax
	jne	.L619
	movq	%rdi, 16(%r12)
.L512:
.LVL398:
.LBB174:
	.loc 1 603 0
	movq	104(%rdi), %rdx
	testq	%rdx, %rdx
	cmove	%rdi, %rdx
.LVL399:
	.p2align 4,,10
	.p2align 3
.L515:
	.loc 1 608 0
	movzbl	132(%rdx), %eax
	.loc 1 609 0
	movq	56(%rdx), %rdx
.LVL400:
	.loc 1 608 0
	andl	$12, %eax
	subl	$4, %eax
	testb	$-8, %al
	sete	%al
	movzbl	%al, %eax
	.loc 1 607 0
	orl	%eax, %r13d
.LVL401:
	.loc 1 611 0
	testq	%rdx, %rdx
	jne	.L515
.LBE174:
	.loc 1 614 0
	testl	%r15d, %r15d
	je	.L516
	movl	keep_going_flag(%rip), %esi
	testl	%esi, %esi
	je	.L498
.L516:
	.loc 1 617 0
	testl	%r13d, %r13d
	jne	.L518
	.loc 1 620 0
	movq	112(%rdi), %rax
	testq	%rax, %rax
	je	.L831
.LVL402:
.L519:
	.loc 1 621 0
	cmpq	$1, %rbx
	sete	%dl
	cmpq	%rbx, %rax
	setne	%al
	.loc 1 620 0
	orl	%eax, %edx
	movzbl	33(%r12), %eax
	andl	$-2, %eax
	orl	%edx, %eax
	movb	%al, 33(%r12)
.L518:
.LVL403:
	movq	%r12, %r14
	.loc 1 624 0
	movq	(%r12), %r12
.LVL404:
.L507:
.LBE173:
	.loc 1 551 0
	testq	%r12, %r12
	jne	.L726
.LVL405:
.L498:
.LBE172:
	.loc 1 543 0
	movq	56(%rsp), %rsi
	testq	%rsi, %rsi
	je	.L523
	movq	16(%rsi), %rax
	movq	(%rsi), %rsi
	movq	%rsi, 56(%rsp)
	jmp	.L524
.LVL406:
.L818:
	.loc 1 441 0
	movl	52(%rsp), %edi
	call	print_spaces
.LVL407:
	movq	40(%rsp), %rax
	.loc 1 441 0
	movl	$5, %edx
	xorl	%edi, %edi
	movl	$.LC30, %esi
	.loc 1 441 0
	movq	(%rax), %rbx
	.loc 1 441 0
	call	dcgettext
.LVL408:
	.loc 1 441 0
	movq	%rax, %rdi
	xorl	%eax, %eax
	movq	%rbx, %rsi
	call	printf
.LVL409:
	.loc 1 441 0
	movq	stdout(%rip), %rdi
	call	fflush
.LVL410:
	jmp	.L470
.LVL411:
.L463:
.LBE203:
.LBE209:
.LBE214:
	.loc 1 319 0
	movq	40(%rsp), %rsi
.LVL412:
	movq	%rdi, %rbx
	testb	$4, 133(%rsi)
	je	.L465
.LVL413:
	.loc 1 319 0 is_stmt 0 discriminator 1
	movzbl	132(%rsi), %ecx
	andl	$3, %ecx
	cmpl	$1, %ecx
	jle	.L465
	.loc 1 319 0 discriminator 2
	andl	$17, %edx
	cmpb	$16, %dl
	je	.L466
.L465:
	.loc 1 322 0 is_stmt 1
	testb	$2, db_level(%rip)
	je	.L467
	.loc 1 322 0 is_stmt 0 discriminator 1
	movl	52(%rsp), %edi
	call	print_spaces
.LVL414:
	movq	(%rbx), %rbx
.LVL415:
	.loc 1 322 0 is_stmt 1 discriminator 1
	movl	$5, %edx
	movl	$.LC29, %esi
	xorl	%edi, %edi
	call	dcgettext
.LVL416:
	.loc 1 322 0 discriminator 1
	movq	%rbx, %rsi
	movq	%rax, %rdi
	xorl	%eax, %eax
	call	printf
.LVL417:
	.loc 1 322 0 discriminator 1
	movq	stdout(%rip), %rdi
	call	fflush
.LVL418:
.L467:
	.loc 1 323 0
	movq	40(%rsp), %rax
	movzbl	132(%rax), %eax
	movl	%eax, %edx
	andl	$3, %eax
	andl	$12, %edx
	movl	%eax, 72(%rsp)
	cmpb	$12, %dl
	je	.L461
.LVL419:
.L600:
	movl	$0, 72(%rsp)
.L461:
	.loc 1 373 0
	movl	72(%rsp), %eax
	addq	$152, %rsp
	.cfi_remember_state
	.cfi_def_cfa_offset 56
	popq	%rbx
	.cfi_def_cfa_offset 48
	popq	%rbp
	.cfi_def_cfa_offset 40
	popq	%r12
	.cfi_def_cfa_offset 32
	popq	%r13
	.cfi_def_cfa_offset 24
	popq	%r14
	.cfi_def_cfa_offset 16
	popq	%r15
	.cfi_def_cfa_offset 8
	ret
.LVL420:
.L821:
	.cfi_restore_state
.LBB215:
.LBB210:
.LBB204:
	.loc 1 473 0
	testb	$2, db_level(%rip)
	jne	.L832
	.loc 1 474 0
	andl	$3, %r15d
	movq	40(%rsp), %rdx
	jmp	.L598
.L478:
	.loc 1 470 0
	testb	$2, db_level(%rip)
	jne	.L833
.LVL421:
.L804:
	.loc 1 697 0
	xorl	%r15d, %r15d
	movq	40(%rsp), %rdx
	jmp	.L598
.LVL422:
.L472:
	.loc 1 460 0
	testb	$2, db_level(%rip)
	je	.L804
	movl	52(%rsp), %edi
	call	print_spaces
.LVL423:
	movq	40(%rsp), %r14
	.loc 1 460 0
	movl	$5, %edx
	movl	$.LC32, %esi
	.loc 1 460 0
	movq	(%r14), %rbx
.L805:
	.loc 1 470 0
	xorl	%edi, %edi
	.loc 1 471 0
	xorl	%r15d, %r15d
	.loc 1 470 0
	call	dcgettext
.LVL424:
	.loc 1 470 0
	movq	%rbx, %rsi
	movq	%rax, %rdi
	xorl	%eax, %eax
	call	printf
.LVL425:
	.loc 1 470 0
	movq	stdout(%rip), %rdi
	call	fflush
.LVL426:
	movq	%r14, %rdx
	jmp	.L598
.LVL427:
.L823:
	.loc 1 502 0
	testb	$1, db_level(%rip)
	movq	$1, 8(%rsp)
	je	.L487
	movl	48(%rsp), %edi
	call	print_spaces
.LVL428:
	movq	(%rbx), %r12
	.loc 1 502 0
	movl	$5, %edx
	movl	$.LC35, %esi
	xorl	%edi, %edi
	call	dcgettext
.LVL429:
	.loc 1 502 0
	movq	%r12, %rsi
	movq	%rax, %rdi
	xorl	%eax, %eax
	call	printf
.LVL430:
	.loc 1 502 0
	movq	stdout(%rip), %rdi
	call	fflush
.LVL431:
	movq	64(%rsp), %rax
	movq	%rax, 8(%rsp)
	jmp	.L487
.LVL432:
	.p2align 4,,10
	.p2align 3
.L822:
	.loc 1 498 0
	movq	40(%rsp), %rdi
	movl	$1, %esi
.LVL433:
	call	f_mtime
.LVL434:
	movq	%rax, 64(%rsp)
	jmp	.L484
.LVL435:
.L833:
	.loc 1 470 0
	movl	52(%rsp), %edi
	call	print_spaces
.LVL436:
	movq	40(%rsp), %r14
	.loc 1 470 0
	movl	$5, %edx
	movl	$.LC33, %esi
	.loc 1 470 0
	movq	(%r14), %rbx
	jmp	.L805
.L832:
	.loc 1 473 0
	movl	52(%rsp), %edi
	call	print_spaces
.LVL437:
	movq	40(%rsp), %r14
	.loc 1 473 0
	movl	$5, %edx
	movl	$.LC34, %esi
	xorl	%edi, %edi
	.loc 1 473 0
	movq	(%r14), %rbx
	.loc 1 473 0
	call	dcgettext
.LVL438:
	.loc 1 473 0
	movq	%rax, %rdi
	xorl	%eax, %eax
	movq	%rbx, %rsi
	call	printf
.LVL439:
	.loc 1 473 0
	movq	stdout(%rip), %rdi
	call	fflush
.LVL440:
	movzbl	132(%r14), %r15d
	movq	40(%rsp), %rdx
	.loc 1 474 0
	andl	$3, %r15d
	jmp	.L598
.LVL441:
	.p2align 4,,10
	.p2align 3
.L829:
.LBB177:
.LBB175:
	.loc 1 565 0
	movl	$5, %edx
	movl	$.LC28, %esi
	xorl	%edi, %edi
	call	dcgettext
.LVL442:
	movq	%rax, 32(%rsp)
	.loc 1 565 0
	movq	(%rsp), %rax
	movq	(%rax), %rcx
	movq	%rcx, %rdi
	movq	%rcx, 24(%rsp)
	call	strlen
.LVL443:
	movq	%rax, %rbx
.LVL444:
	movq	16(%r12), %rax
	movq	(%rax), %r8
	movq	%r8, %rdi
	movq	%r8, 16(%rsp)
	call	strlen
.LVL445:
	movq	16(%rsp), %r8
	movq	24(%rsp), %rcx
	leaq	(%rbx,%rax), %rsi
	movq	32(%rsp), %rdx
	xorl	%edi, %edi
	xorl	%eax, %eax
	call	error
.LVL446:
	.loc 1 570 0
	testq	%r14, %r14
	je	.L834
	.loc 1 573 0
	movq	(%r12), %rax
	movq	%rax, (%r14)
	movq	(%r12), %r12
.LVL447:
	jmp	.L507
.LVL448:
.L831:
	.loc 1 620 0
	movl	$1, %esi
	call	f_mtime
.LVL449:
	jmp	.L519
.LVL450:
.L826:
	.loc 1 558 0
	movq	%rax, %rdi
	.loc 1 560 0
	movq	112(%rdi), %rbx
	testq	%rbx, %rbx
	je	.L605
.L827:
.LVL451:
	.loc 1 561 0
	movq	16(%r12), %rdi
	jmp	.L501
.LVL452:
.L830:
	.loc 1 599 0
	movq	%rax, %rdi
	jmp	.L512
.LVL453:
.L834:
	.loc 1 571 0
	movq	(%r12), %r12
.LVL454:
	movq	(%rsp), %rax
	movq	%r12, 24(%rax)
	jmp	.L507
.LVL455:
.L523:
.LBE175:
.LBE177:
	.loc 1 631 0
	testl	%ebp, %ebp
	movl	%ebp, 16(%rsp)
	movq	(%rsp), %rbx
	jne	.L525
	movl	always_make_flag(%rip), %ecx
	testl	%ecx, %ecx
	je	.L526
.L525:
	.loc 1 633 0
	movq	24(%rbx), %r14
.LVL456:
	testq	%r14, %r14
	je	.L526
.LVL457:
.L542:
	.loc 1 634 0
	movq	16(%r14), %rax
	testb	$64, 133(%rax)
	je	.L527
.LVL458:
.LBB178:
	.loc 1 639 0
	movq	112(%rax), %rbp
	testq	%rbp, %rbp
	je	.L835
.LVL459:
	.loc 1 640 0
	movq	72(%rax), %rdi
	testq	%rdi, %rdi
	jne	.L530
	jmp	.L836
	.p2align 4,,10
	.p2align 3
.L621:
	movq	%rax, %rdi
.L530:
	movq	72(%rdi), %rax
	testq	%rax, %rax
	jne	.L621
	movq	%rdi, 16(%r14)
.L529:
	.loc 1 644 0
	movl	rebuilding_makefiles(%rip), %r12d
	.loc 1 641 0
	movq	%rbx, 96(%rdi)
	.loc 1 644 0
	testl	%r12d, %r12d
	je	.L531
	.loc 1 646 0
	movzbl	134(%rdi), %eax
	.loc 1 647 0
	movzbl	134(%rbx), %edx
	.loc 1 646 0
	movl	%eax, %r12d
	.loc 1 647 0
	andl	$1, %edx
	andl	$-2, %eax
	orl	%edx, %eax
	.loc 1 646 0
	andl	$1, %r12d
.LVL460:
	.loc 1 647 0
	movb	%al, 134(%rdi)
.LVL461:
.L531:
	.loc 1 653 0
	movl	considered(%rip), %eax
	testl	%eax, %eax
	sete	%al
	leal	0(,%rax,8), %edx
	movzbl	134(%rdi), %eax
	andl	$-9, %eax
	orl	%edx, %eax
	movb	%al, 134(%rdi)
	.loc 1 655 0
	movl	48(%rsp), %esi
	call	update_file
.LVL462:
	.loc 1 660 0
	movl	rebuilding_makefiles(%rip), %edx
	cmpl	%eax, %r15d
	cmovb	%eax, %r15d
.LVL463:
	.loc 1 661 0
	movq	16(%r14), %rax
.LVL464:
	.loc 1 660 0
	testl	%edx, %edx
	je	.L533
	.loc 1 661 0
	movzbl	134(%rax), %edx
	movl	%r12d, %ecx
	andl	$1, %ecx
	andl	$-2, %edx
	orl	%edx, %ecx
	movb	%cl, 134(%rax)
.L533:
	.loc 1 663 0
	movq	72(%rax), %rdi
	testq	%rdi, %rdi
	jne	.L535
	jmp	.L837
	.p2align 4,,10
	.p2align 3
.L623:
	movq	%rax, %rdi
.L535:
	movq	72(%rdi), %rax
	testq	%rax, %rax
	jne	.L623
	movq	%rdi, 16(%r14)
.L534:
.LVL465:
.LBB179:
	.loc 1 667 0
	movq	104(%rdi), %rdx
	testq	%rdx, %rdx
	cmove	%rdi, %rdx
.LVL466:
	.p2align 4,,10
	.p2align 3
.L537:
	.loc 1 672 0
	movzbl	132(%rdx), %eax
	.loc 1 673 0
	movq	56(%rdx), %rdx
.LVL467:
	.loc 1 672 0
	andl	$12, %eax
	subl	$4, %eax
	testb	$-8, %al
	sete	%al
	movzbl	%al, %eax
	.loc 1 671 0
	orl	%eax, %r13d
.LVL468:
	.loc 1 675 0
	testq	%rdx, %rdx
	jne	.L537
.LBE179:
	.loc 1 678 0
	testl	%r15d, %r15d
	je	.L538
	movl	keep_going_flag(%rip), %eax
	testl	%eax, %eax
	je	.L526
.L538:
	.loc 1 681 0
	testl	%r13d, %r13d
	jne	.L527
	.loc 1 683 0
	testb	$32, 133(%rbx)
	je	.L539
	.loc 1 682 0
	cmpq	$0, 32(%rbx)
	movl	$1, %edx
.LVL469:
	je	.L539
.L540:
	movzbl	33(%r14), %eax
	andl	$-2, %eax
	orl	%edx, %eax
	movb	%al, 33(%r14)
.LVL470:
.L527:
.LBE178:
	.loc 1 633 0
	movq	(%r14), %r14
.LVL471:
	testq	%r14, %r14
	jne	.L542
.LVL472:
.L526:
	.loc 1 687 0
	movq	104(%rbx), %rax
	testq	%rax, %rax
	cmove	%rbx, %rax
	andb	$-3, 133(%rax)
	.loc 1 688 0
	movq	40(%rsp), %rsi
	movq	104(%rsi), %rax
	testq	%rax, %rax
	cmove	%rsi, %rax
	andb	$-3, 133(%rax)
	.loc 1 690 0
	testb	$2, db_level(%rip)
	je	.L545
	movl	48(%rsp), %edi
	call	print_spaces
.LVL473:
	movq	(%rbx), %r12
	.loc 1 690 0
	movl	$5, %edx
	movl	$.LC38, %esi
	xorl	%edi, %edi
	call	dcgettext
.LVL474:
	.loc 1 690 0
	movq	%r12, %rsi
	movq	%rax, %rdi
	xorl	%eax, %eax
	call	printf
.LVL475:
	.loc 1 690 0
	movq	stdout(%rip), %rdi
	call	fflush
.LVL476:
.L545:
	.loc 1 692 0
	testl	%r13d, %r13d
	jne	.L838
	.loc 1 702 0
	testl	%r15d, %r15d
	je	.L547
	.loc 1 705 0
	cmpl	$1, %r15d
	movl	$3, %eax
	.loc 1 706 0
	movq	%rbx, %rdi
	.loc 1 705 0
	cmovne	%r15d, %eax
	movl	%eax, %edx
	movzbl	132(%rbx), %eax
	andl	$3, %edx
	andl	$-4, %eax
	orl	%edx, %eax
	movb	%al, 132(%rbx)
	.loc 1 706 0
	call	notice_finished_file
.LVL477:
	.loc 1 710 0
	testb	$2, db_level(%rip)
	jne	.L839
	.loc 1 712 0
	movl	52(%rsp), %r13d
.LVL478:
	testl	%r13d, %r13d
	jne	.L799
.L853:
	movl	keep_going_flag(%rip), %r12d
	testl	%r12d, %r12d
	je	.L799
	.loc 1 713 0
	movl	just_print_flag(%rip), %ebp
	testl	%ebp, %ebp
	jne	.L799
	movl	question_flag(%rip), %r11d
	testl	%r11d, %r11d
	jne	.L799
	.loc 1 714 0
	movl	$5, %edx
	movl	$.LC41, %esi
	xorl	%edi, %edi
	call	dcgettext
.LVL479:
	.loc 1 714 0
	movq	(%rbx), %rbx
	.loc 1 714 0
	movq	%rax, %rbp
	.loc 1 714 0
	movq	%rbx, %rdi
	call	strlen
.LVL480:
	movq	%rbp, %rdx
	movq	%rax, %rsi
	movq	%rbx, %rcx
	xorl	%edi, %edi
	xorl	%eax, %eax
	call	error
.LVL481:
	movq	40(%rsp), %rdx
	jmp	.L598
.LVL482:
	.p2align 4,,10
	.p2align 3
.L835:
.LBB180:
	.loc 1 639 0
	movq	%rax, %rdi
	movl	$1, %esi
	call	f_mtime
.LVL483:
	movq	%rax, %rbp
	movq	16(%r14), %rax
.LVL484:
	.loc 1 640 0
	movq	72(%rax), %rdi
	testq	%rdi, %rdi
	jne	.L530
.L836:
	movq	%rax, %rdi
	jmp	.L529
.LVL485:
.L539:
	.loc 1 683 0
	movq	112(%rdi), %rax
	testq	%rax, %rax
	je	.L840
.L541:
	cmpq	%rax, %rbp
	setne	%dl
	jmp	.L540
.LVL486:
.L819:
.LBE180:
	.loc 1 447 0
	movl	52(%rsp), %edi
	call	print_spaces
.LVL487:
	movq	40(%rsp), %rax
	.loc 1 447 0
	movl	$5, %edx
	xorl	%edi, %edi
	movl	$.LC31, %esi
	.loc 1 447 0
	movq	(%rax), %rbx
	.loc 1 447 0
	call	dcgettext
.LVL488:
	.loc 1 447 0
	movq	%rax, %rdi
	xorl	%eax, %eax
	movq	%rbx, %rsi
	call	printf
.LVL489:
	.loc 1 447 0
	movq	stdout(%rip), %rdi
	call	fflush
.LVL490:
	jmp	.L473
.LVL491:
.L825:
	.loc 1 520 0
	testb	$1, %al
	jne	.L492
	.loc 1 522 0
	movl	48(%rsp), %esi
	movq	%rbx, %rdi
	call	try_implicit_rule
.LVL492:
	testl	%eax, %eax
	je	.L493
	.loc 1 523 0
	testb	$8, db_level(%rip)
	jne	.L841
.L494:
	.loc 1 526 0
	orb	$1, 133(%rbx)
.LVL493:
.L489:
	.loc 1 528 0
	cmpq	$0, 32(%rbx)
	jne	.L491
	movzbl	133(%rbx), %eax
.L492:
	testb	$8, %al
	jne	.L491
	.loc 1 529 0
	movq	default_file(%rip), %rax
	testq	%rax, %rax
	je	.L491
	movq	32(%rax), %rax
	testq	%rax, %rax
	je	.L491
	.loc 1 531 0
	testb	$8, db_level(%rip)
	je	.L496
	movl	48(%rsp), %edi
	call	print_spaces
.LVL494:
	movq	(%rbx), %r12
	.loc 1 531 0
	movl	$5, %edx
	movl	$.LC37, %esi
	xorl	%edi, %edi
	call	dcgettext
.LVL495:
	.loc 1 531 0
	movq	%r12, %rsi
	movq	%rax, %rdi
	xorl	%eax, %eax
	call	printf
.LVL496:
	.loc 1 531 0
	movq	stdout(%rip), %rdi
	call	fflush
.LVL497:
	movq	default_file(%rip), %rax
	movq	32(%rax), %rax
.L496:
	.loc 1 532 0
	movq	%rax, 32(%rbx)
	jmp	.L491
.LVL498:
	.p2align 4,,10
	.p2align 3
.L820:
	.loc 1 455 0
	movq	40(%rsp), %rdi
	call	complain
.LVL499:
	jmp	.L474
.LVL500:
.L840:
.LBB181:
	.loc 1 683 0
	movl	$1, %esi
	call	f_mtime
.LVL501:
	jmp	.L541
.L837:
	.loc 1 663 0
	movq	%rax, %rdi
	jmp	.L534
.LVL502:
.L838:
.LBE181:
	.loc 1 694 0
	movl	$1, %esi
	movq	%rbx, %rdi
	call	set_command_state
.LVL503:
	.loc 1 696 0
	testb	$2, db_level(%rip)
	je	.L804
	movl	52(%rsp), %edi
	call	print_spaces
.LVL504:
	movq	(%rbx), %rbx
	.loc 1 696 0
	movl	$5, %edx
	xorl	%edi, %edi
	movl	$.LC39, %esi
	call	dcgettext
.LVL505:
	.loc 1 696 0
	movq	%rbx, %rsi
	movq	%rax, %rdi
	xorl	%eax, %eax
	call	printf
.LVL506:
	.loc 1 696 0
	movq	stdout(%rip), %rdi
	call	fflush
.LVL507:
	jmp	.L804
.LVL508:
	.p2align 4,,10
	.p2align 3
.L547:
	.loc 1 720 0
	movzbl	132(%rbx), %eax
	andl	$12, %eax
	cmpb	$4, %al
	je	.L842
.L550:
.LVL509:
	.loc 1 735 0
	movq	24(%rbx), %r12
.LVL510:
	testq	%r12, %r12
	je	.L551
.LVL511:
.L566:
.LBB182:
	.loc 1 737 0
	movq	16(%r12), %rdi
	movq	112(%rdi), %rax
	testq	%rax, %rax
	je	.L843
.LVL512:
	.loc 1 738 0
	movq	72(%rdi), %rcx
	testq	%rcx, %rcx
	jne	.L554
	jmp	.L844
	.p2align 4,,10
	.p2align 3
.L627:
	movq	%rdx, %rcx
.L554:
	movq	72(%rcx), %rdx
	testq	%rdx, %rdx
	jne	.L627
	movq	%rcx, 16(%r12)
.L553:
	.loc 1 740 0
	movzbl	33(%r12), %edx
	testb	$2, %dl
	je	.L555
	movl	%edx, %ecx
	andl	$1, %ecx
.L556:
	.loc 1 758 0
	cmpq	%rax, 8(%rsp)
	setb	%dl
	orb	79(%rsp), %dl
	orl	%edx, %ecx
	movzbl	33(%r12), %edx
	andl	$-2, %edx
	orl	%ecx, %edx
	movb	%dl, 33(%r12)
.LVL513:
	.loc 1 760 0
	cmpq	$1, 64(%rsp)
	je	.L559
	movl	db_level(%rip), %ecx
	testb	$3, %cl
	je	.L559
.LVL514:
.LBB183:
	.loc 1 764 0
	testb	$2, %dl
	je	.L561
	.loc 1 766 0
	andl	$2, %ecx
	jne	.L845
.LVL515:
.L559:
.LBE183:
.LBE182:
	.loc 1 735 0
	movq	(%r12), %r12
.LVL516:
	testq	%r12, %r12
	jne	.L566
.LVL517:
	.loc 1 794 0
	cmpq	$0, 104(%rbx)
	je	.L567
	cmpq	$0, 24(%rbx)
	je	.L607
.LVL518:
.L567:
	.loc 1 800 0
	cmpq	$1, 64(%rsp)
	je	.L571
	testb	$8, 133(%rbx)
	je	.L571
	andl	$1, %r13d
	jne	.L571
	cmpq	$0, 32(%rbx)
	je	.L846
	.loc 1 807 0
	movl	16(%rsp), %eax
	testl	%eax, %eax
	je	.L608
.L577:
	movl	db_level(%rip), %eax
.LVL519:
.L570:
	.loc 1 840 0
	testb	$1, %al
	jne	.L847
.L569:
	.loc 1 844 0
	movq	(%rbx), %rax
	movq	8(%rbx), %rbp
	cmpq	%rbp, %rax
	je	.L581
	movzbl	(%rax), %edx
	cmpb	0(%rbp), %dl
	je	.L848
.L582:
	.loc 1 846 0
	testb	$1, db_level(%rip)
	jne	.L849
.L583:
	.loc 1 847 0
	orb	$2, 134(%rbx)
.LVL520:
.L581:
.LBB188:
.LBB189:
	.loc 1 1226 0
	movq	32(%rbx), %rdi
	testq	%rdi, %rdi
	je	.L850
	.loc 1 1245 0
	call	chop_commands
.LVL521:
	.loc 1 1248 0
	movl	touch_flag(%rip), %esi
	testl	%esi, %esi
	je	.L590
	movq	32(%rbx), %rax
	testb	$1, 51(%rax)
	jne	.L590
.L591:
	.loc 1 1255 0
	andb	$-4, 132(%rbx)
.L586:
	.loc 1 1259 0
	movq	%rbx, %rdi
	call	notice_finished_file
.LVL522:
.L592:
.LBE189:
.LBE188:
	.loc 1 853 0
	movzbl	132(%rbx), %eax
	movl	%eax, %edx
	andl	$12, %edx
	cmpb	$12, %dl
	je	.L593
	.loc 1 855 0
	testb	$2, db_level(%rip)
	je	.L804
	movl	52(%rsp), %edi
	call	print_spaces
.LVL523:
	movq	(%rbx), %rbx
	.loc 1 855 0
	movl	$5, %edx
	movl	$.LC53, %esi
	xorl	%edi, %edi
	call	dcgettext
.LVL524:
	.loc 1 855 0
	movq	%rbx, %rsi
	movq	%rax, %rdi
	xorl	%eax, %eax
	call	printf
.LVL525:
	.loc 1 855 0
	movq	stdout(%rip), %rdi
	call	fflush
.LVL526:
	movq	40(%rsp), %rdx
	jmp	.L598
.LVL527:
	.p2align 4,,10
	.p2align 3
.L571:
	.loc 1 807 0
	movl	16(%rsp), %r9d
	testl	%r9d, %r9d
	jne	.L577
	cmpq	$0, 32(%rbx)
	je	.L576
.L608:
	movl	always_make_flag(%rip), %r8d
	testl	%r8d, %r8d
	je	.L576
.LVL528:
	.loc 1 810 0
	movl	db_level(%rip), %eax
	testb	$2, %al
	je	.L570
	movl	52(%rsp), %edi
	call	print_spaces
.LVL529:
	movq	(%rbx), %rbp
	.loc 1 810 0
	movl	$5, %edx
	movl	$.LC48, %esi
.L806:
	xorl	%edi, %edi
	call	dcgettext
.LVL530:
	.loc 1 810 0
	movq	%rbp, %rsi
	movq	%rax, %rdi
	xorl	%eax, %eax
	call	printf
.LVL531:
	.loc 1 810 0
	movq	stdout(%rip), %rdi
	call	fflush
.LVL532:
	movl	db_level(%rip), %eax
	jmp	.L570
.LVL533:
	.p2align 4,,10
	.p2align 3
.L555:
.LBB191:
	.loc 1 746 0
	cmpq	$1, %rax
	je	.L851
.LVL534:
.L557:
	.loc 1 753 0
	movl	%edx, %ecx
	andl	$1, %ecx
	movzbl	%cl, %edx
	orl	%edx, %r13d
.LVL535:
	jmp	.L556
.LVL536:
.L843:
	.loc 1 737 0
	movl	$1, %esi
	call	f_mtime
.LVL537:
	movq	16(%r12), %rdi
.LVL538:
	.loc 1 738 0
	movq	72(%rdi), %rcx
	testq	%rcx, %rcx
	jne	.L554
.L844:
	movq	%rdi, %rcx
	jmp	.L553
.LVL539:
.L561:
.LBB184:
	.loc 1 769 0
	cmpq	$1, %rax
	je	.L852
	.loc 1 774 0
	andl	$1, %edx
	je	.L564
	.loc 1 776 0
	andl	$1, %ecx
	je	.L559
	.loc 1 777 0
	movl	$5, %edx
	movl	$.LC44, %esi
	xorl	%edi, %edi
	call	dcgettext
.LVL540:
	jmp	.L562
.LVL541:
	.p2align 4,,10
	.p2align 3
.L851:
.LBE184:
	.loc 1 749 0
	testb	$64, 133(%rcx)
	movl	$1, %ecx
	cmovne	16(%rsp), %ecx
	movl	%ecx, 16(%rsp)
.LVL542:
	jmp	.L557
.LVL543:
.L799:
	movq	40(%rsp), %rdx
	jmp	.L598
.LVL544:
.L839:
.LBE191:
	.loc 1 710 0
	movl	52(%rsp), %edi
	call	print_spaces
.LVL545:
	movq	(%rbx), %rbp
	.loc 1 710 0
	movl	$5, %edx
	xorl	%edi, %edi
	movl	$.LC40, %esi
	call	dcgettext
.LVL546:
	.loc 1 710 0
	movq	%rbp, %rsi
	movq	%rax, %rdi
	xorl	%eax, %eax
	call	printf
.LVL547:
	.loc 1 710 0
	movq	stdout(%rip), %rdi
	call	fflush
.LVL548:
	.loc 1 712 0
	movl	52(%rsp), %r13d
.LVL549:
	testl	%r13d, %r13d
	je	.L853
	jmp	.L799
.LVL550:
	.p2align 4,,10
	.p2align 3
.L824:
.LBB192:
	.loc 1 507 0
	movl	64(%rsp), %eax
	leal	-3(%rax), %r12d
.LVL551:
	.loc 1 508 0
	andl	$1073741823, %r12d
.LVL552:
	jne	.L854
.L488:
	.loc 1 512 0
	movl	$999999999, %eax
	subl	%r12d, %eax
	cltq
	addq	64(%rsp), %rax
	movq	%rax, 8(%rsp)
.LVL553:
	jmp	.L487
.LVL554:
.L564:
.LBE192:
.LBB193:
.LBB185:
	.loc 1 779 0
	andl	$2, %ecx
	je	.L559
	.loc 1 780 0
	movl	$5, %edx
	movl	$.LC45, %esi
	xorl	%edi, %edi
	call	dcgettext
.LVL555:
.L562:
	.loc 1 782 0
	testq	%rax, %rax
	movq	%rax, (%rsp)
	je	.L559
	.loc 1 784 0
	movl	48(%rsp), %edi
	call	print_spaces
.LVL556:
	.loc 1 785 0
	movq	8(%r12), %rsi
	movq	(%rbx), %rdx
	movq	(%rsp), %rax
	testq	%rsi, %rsi
	je	.L855
.L565:
	movq	%rax, %rdi
	xorl	%eax, %eax
	call	printf
.LVL557:
	.loc 1 786 0
	movq	stdout(%rip), %rdi
	call	fflush
.LVL558:
	jmp	.L559
.LVL559:
.L630:
.LBE185:
.LBE193:
.LBE204:
.LBE210:
	movl	%r15d, 72(%rsp)
	jmp	.L461
.LVL560:
.L845:
.LBB211:
.LBB205:
.LBB194:
.LBB186:
	.loc 1 767 0
	movl	$5, %edx
	movl	$.LC42, %esi
	xorl	%edi, %edi
	call	dcgettext
.LVL561:
	jmp	.L562
.LVL562:
.L846:
.LBE186:
.LBE194:
	.loc 1 801 0
	movl	always_make_flag(%rip), %r10d
	testl	%r10d, %r10d
	jne	.L573
.LVL563:
	.loc 1 804 0
	testb	$2, db_level(%rip)
	je	.L575
	movl	52(%rsp), %edi
	call	print_spaces
.LVL564:
	movq	(%rbx), %rbp
	.loc 1 804 0
	movl	$5, %edx
	movl	$.LC47, %esi
	xorl	%edi, %edi
	call	dcgettext
.LVL565:
	.loc 1 804 0
	movq	%rbp, %rsi
	movq	%rax, %rdi
	xorl	%eax, %eax
	call	printf
.LVL566:
	.loc 1 804 0
	movq	stdout(%rip), %rdi
	call	fflush
.LVL567:
.L576:
	.loc 1 815 0
	testb	$2, db_level(%rip)
	jne	.L856
.L575:
	.loc 1 825 0
	movq	%rbx, %rdi
	call	notice_finished_file
.LVL568:
.L580:
	.loc 1 833 0
	movq	8(%rbx), %rax
	movq	%rax, (%rbx)
	.loc 1 834 0
	movq	56(%rbx), %rbx
.LVL569:
	.loc 1 831 0
	testq	%rbx, %rbx
	jne	.L580
	.loc 1 697 0
	xorl	%r15d, %r15d
.LVL570:
	movq	40(%rsp), %rdx
	jmp	.L598
.LVL571:
.L852:
.LBB195:
.LBB187:
	.loc 1 771 0
	andl	$1, %ecx
	je	.L559
	.loc 1 772 0
	movl	$5, %edx
	movl	$.LC43, %esi
	xorl	%edi, %edi
	call	dcgettext
.LVL572:
	jmp	.L562
.LVL573:
	.p2align 4,,10
	.p2align 3
.L855:
	.loc 1 785 0
	movq	16(%r12), %rcx
	movq	(%rcx), %rsi
	jmp	.L565
.LVL574:
.L856:
.LBE187:
.LBE195:
	.loc 1 817 0
	movl	52(%rsp), %edi
	call	print_spaces
.LVL575:
	.loc 1 818 0
	movq	(%rbx), %rbp
	.loc 1 818 0
	xorl	%edi, %edi
	movl	$5, %edx
	movl	$.LC49, %esi
	call	dcgettext
.LVL576:
	.loc 1 818 0
	movq	%rbp, %rsi
	movq	%rax, %rdi
	xorl	%eax, %eax
	call	printf
.LVL577:
	.loc 1 819 0
	movq	(%rbx), %rax
	movq	8(%rbx), %rbp
	cmpq	%rbp, %rax
	je	.L578
	movzbl	(%rax), %edx
	cmpb	0(%rbp), %dl
	jne	.L579
	testb	%dl, %dl
	je	.L578
.LBB196:
	.loc 1 819 0
	leaq	1(%rbp), %rsi
	leaq	1(%rax), %rdi
	call	strcmp
.LVL578:
.LBE196:
	.loc 1 819 0
	testl	%eax, %eax
	je	.L578
.L579:
	.loc 1 820 0
	movl	$.LC50, %esi
	xorl	%edi, %edi
	movl	$5, %edx
	call	dcgettext
.LVL579:
	.loc 1 820 0
	movq	%rbp, %rsi
	movq	%rax, %rdi
	xorl	%eax, %eax
	call	printf
.LVL580:
.L578:
	.loc 1 821 0
	movl	$.LC7, %edi
	call	puts
.LVL581:
	.loc 1 822 0
	movq	stdout(%rip), %rdi
	call	fflush
.LVL582:
	jmp	.L575
.LVL583:
.L573:
	.loc 1 807 0
	movl	16(%rsp), %edx
	testl	%edx, %edx
	je	.L576
	jmp	.L577
.LVL584:
.L828:
.LBB197:
.LBB176:
	.loc 1 561 0
	movq	%rax, %rdi
	jmp	.L501
.LVL585:
.L847:
.LBE176:
.LBE197:
	.loc 1 840 0
	movl	52(%rsp), %edi
	call	print_spaces
.LVL586:
	movq	(%rbx), %rbp
	.loc 1 840 0
	movl	$5, %edx
	xorl	%edi, %edi
	movl	$.LC51, %esi
	call	dcgettext
.LVL587:
	.loc 1 840 0
	movq	%rbp, %rsi
	movq	%rax, %rdi
	xorl	%eax, %eax
	call	printf
.LVL588:
	.loc 1 840 0
	movq	stdout(%rip), %rdi
	call	fflush
.LVL589:
	jmp	.L569
.LVL590:
.L854:
.LBB198:
	.loc 1 509 0
	movl	$5, %edx
	movl	$.LC36, %esi
	xorl	%edi, %edi
	call	dcgettext
.LVL591:
	.loc 1 509 0
	movq	(%rbx), %r15
	.loc 1 509 0
	movq	%rax, %r14
	.loc 1 509 0
	movq	%r15, %rdi
	call	strlen
.LVL592:
	movq	%r15, %rcx
	movq	%rax, %rsi
	movq	%r14, %rdx
	xorl	%edi, %edi
	xorl	%eax, %eax
	call	error
.LVL593:
	jmp	.L488
.LVL594:
.L841:
.LBE198:
	.loc 1 523 0
	movl	48(%rsp), %edi
	call	print_spaces
.LVL595:
	movq	(%rbx), %r12
	.loc 1 523 0
	movl	$5, %edx
	movl	$.LC25, %esi
.L802:
	.loc 1 525 0
	xorl	%edi, %edi
	call	dcgettext
.LVL596:
	.loc 1 525 0
	movq	%r12, %rsi
	movq	%rax, %rdi
	xorl	%eax, %eax
	call	printf
.LVL597:
	.loc 1 525 0
	movq	stdout(%rip), %rdi
	call	fflush
.LVL598:
	jmp	.L494
.L493:
	.loc 1 525 0
	testb	$8, db_level(%rip)
	je	.L494
	movl	48(%rsp), %edi
	call	print_spaces
.LVL599:
	movq	(%rbx), %r12
	.loc 1 525 0
	movl	$5, %edx
	movl	$.LC26, %esi
	jmp	.L802
.LVL600:
.L551:
	.loc 1 794 0
	cmpq	$0, 104(%rbx)
	je	.L567
.LVL601:
.L607:
	.loc 1 797 0
	testb	$1, db_level(%rip)
	je	.L569
	movl	52(%rsp), %edi
	call	print_spaces
.LVL602:
	movq	(%rbx), %rbp
	.loc 1 797 0
	movl	$5, %edx
	movl	$.LC46, %esi
	jmp	.L806
.LVL603:
.L593:
	.loc 1 859 0
	andl	$3, %eax
	cmpb	$2, %al
	movl	%eax, %r15d
.LVL604:
	je	.L595
	ja	.L596
	cmpb	$1, %al
	jne	.L857
.L597:
	.loc 1 874 0
	orb	$4, 133(%rbx)
	.loc 1 875 0
	movzbl	%r15b, %r15d
.LVL605:
	movq	40(%rsp), %rdx
.LBE205:
.LBE211:
	.loc 1 336 0
	jmp	.L598
.LVL606:
.L590:
.LBB212:
.LBB206:
.LBB199:
.LBB190:
	.loc 1 1250 0
	movq	%rbx, %rdi
	call	execute_file_commands
.LVL607:
	jmp	.L592
.L850:
	.loc 1 1228 0
	movzbl	133(%rbx), %eax
	testb	$32, %al
	jne	.L591
	.loc 1 1231 0
	testb	$8, %al
	jne	.L591
	.loc 1 1238 0
	movl	rebuilding_makefiles(%rip), %edi
	testl	%edi, %edi
	je	.L588
	testb	$1, 134(%rbx)
	jne	.L589
.L588:
	.loc 1 1239 0
	movq	%rbx, %rdi
	call	complain
.LVL608:
.L589:
	.loc 1 1240 0
	orb	$3, 132(%rbx)
	jmp	.L586
.LVL609:
.L842:
.LBE190:
.LBE199:
	.loc 1 729 0
	xorl	%esi, %esi
	movq	%rbx, %rdi
	call	set_command_state
.LVL610:
	jmp	.L550
.LVL611:
.L849:
	.loc 1 846 0
	movl	$5, %edx
	xorl	%edi, %edi
	movl	$.LC52, %esi
	call	dcgettext
.LVL612:
	.loc 1 846 0
	movq	%rbp, %rsi
	movq	%rax, %rdi
	xorl	%eax, %eax
	call	printf
.LVL613:
	.loc 1 846 0
	movq	stdout(%rip), %rdi
	call	fflush
.LVL614:
	jmp	.L583
.L848:
	.loc 1 844 0
	testb	%dl, %dl
	je	.L581
.LBB200:
	.loc 1 844 0
	leaq	1(%rbp), %rsi
	leaq	1(%rax), %rdi
	call	strcmp
.LVL615:
.LBE200:
	.loc 1 844 0
	testl	%eax, %eax
	je	.L581
	jmp	.L582
.LVL616:
.L596:
	.loc 1 862 0
	testb	$1, db_level(%rip)
	je	.L597
	movl	52(%rsp), %edi
	call	print_spaces
.LVL617:
	movq	(%rbx), %rbp
	.loc 1 862 0
	movl	$5, %edx
	movl	$.LC54, %esi
.L803:
	.loc 1 868 0
	xorl	%edi, %edi
	call	dcgettext
.LVL618:
	.loc 1 868 0
	movq	%rbp, %rsi
	movq	%rax, %rdi
	xorl	%eax, %eax
	call	printf
.LVL619:
	.loc 1 868 0
	movq	stdout(%rip), %rdi
	call	fflush
.LVL620:
	movzbl	132(%rbx), %r15d
	andl	$3, %r15d
	jmp	.L597
.L857:
	.loc 1 865 0
	testb	$1, db_level(%rip)
	je	.L597
	movl	52(%rsp), %edi
	call	print_spaces
.LVL621:
	movq	(%rbx), %rbp
	.loc 1 865 0
	movl	$5, %edx
	movl	$.LC55, %esi
	jmp	.L803
.L595:
	.loc 1 868 0
	testb	$1, db_level(%rip)
	je	.L597
	movl	52(%rsp), %edi
	call	print_spaces
.LVL622:
	movq	(%rbx), %rbp
	.loc 1 868 0
	movl	$5, %edx
	movl	$.LC56, %esi
	jmp	.L803
.LBE206:
.LBE212:
.LBE215:
	.cfi_endproc
.LFE55:
	.size	update_file, .-update_file
	.section	.rodata.str1.1
.LC57:
	.string	"Nothing to be done for '%s'."
.LC58:
	.string	"'%s' is up to date."
	.text
	.p2align 4,,15
	.globl	update_goal_chain
	.type	update_goal_chain, @function
update_goal_chain:
.LFB53:
	.loc 1 83 0
	.cfi_startproc
.LVL623:
	pushq	%r15
	.cfi_def_cfa_offset 16
	.cfi_offset 15, -16
	pushq	%r14
	.cfi_def_cfa_offset 24
	.cfi_offset 14, -24
	pushq	%r13
	.cfi_def_cfa_offset 32
	.cfi_offset 13, -32
	pushq	%r12
	.cfi_def_cfa_offset 40
	.cfi_offset 12, -40
	pushq	%rbp
	.cfi_def_cfa_offset 48
	.cfi_offset 6, -48
	pushq	%rbx
	.cfi_def_cfa_offset 56
	.cfi_offset 3, -56
	movq	%rdi, %rbx
	subq	$40, %rsp
	.cfi_def_cfa_offset 96
	.loc 1 84 0
	movl	touch_flag(%rip), %eax
	movl	just_print_flag(%rip), %r14d
	movl	%eax, (%rsp)
.LVL624:
	movl	question_flag(%rip), %eax
.LVL625:
	movl	%eax, 4(%rsp)
.LVL626:
	.loc 1 89 0
	call	copy_dep_chain
.LVL627:
	movq	%rax, 16(%rsp)
.LVL628:
	.loc 1 91 0
	movl	rebuilding_makefiles(%rip), %eax
.LVL629:
	testl	%eax, %eax
	jne	.L859
	.loc 1 101 0
	cmpq	$0, 16(%rsp)
	.loc 1 91 0
	movq	$0, goal_list(%rip)
	.loc 1 85 0
	movl	$1, %ebp
	.loc 1 94 0
	movl	$1, considered(%rip)
	.loc 1 101 0
	je	.L858
.L896:
	.loc 1 83 0
	movl	$1, %ebp
.LVL630:
.L891:
.LBB216:
	.loc 1 107 0
	call	start_waiting_jobs
.LVL631:
	.loc 1 111 0
	xorl	%esi, %esi
	movl	$1, %edi
	call	reap_children
.LVL632:
	movq	16(%rsp), %r15
	.loc 1 113 0
	movq	$0, 8(%rsp)
.LVL633:
.L888:
.LBB217:
	.loc 1 123 0
	movq	16(%r15), %rax
	.loc 1 121 0
	movq	%r15, goal_dep(%rip)
	.loc 1 123 0
	movq	104(%rax), %r12
	testq	%r12, %r12
	cmove	%rax, %r12
	xorl	%ebx, %ebx
.LVL634:
	.p2align 4,,10
	.p2align 3
.L894:
.LBB218:
	.loc 1 130 0
	movzbl	32(%r15), %eax
	shrb	$2, %al
	andl	$1, %eax
	movl	%eax, %ecx
	movzbl	134(%r12), %eax
	andl	$-2, %eax
	orl	%ecx, %eax
	movb	%al, 134(%r12)
	.loc 1 132 0
	jmp	.L862
	.p2align 4,,10
	.p2align 3
.L900:
.LVL635:
	movq	%rax, %r12
.LVL636:
.L862:
	.loc 1 132 0 is_stmt 0 discriminator 1
	movq	72(%r12), %rax
	testq	%rax, %rax
	jne	.L900
	.loc 1 133 0 is_stmt 1
	movl	rebuilding_makefiles(%rip), %eax
	testl	%eax, %eax
	je	.L863
	.loc 1 135 0
	testb	$16, 133(%r12)
	je	.L864
	.loc 1 137 0
	movl	(%rsp), %edx
	.loc 1 139 0
	movl	%r14d, just_print_flag(%rip)
	.loc 1 137 0
	movl	%edx, touch_flag(%rip)
	.loc 1 138 0
	movl	4(%rsp), %edx
	movl	%edx, question_flag(%rip)
.L863:
	.loc 1 150 0
	xorl	%esi, %esi
	testl	%eax, %eax
	movq	%r12, %rdi
	setne	%sil
	.loc 1 148 0
	movl	commands_started(%rip), %r13d
.LVL637:
	.loc 1 150 0
	call	update_file
.LVL638:
	.loc 1 151 0
	jmp	.L865
	.p2align 4,,10
	.p2align 3
.L901:
.LVL639:
	movq	%rcx, %r12
.LVL640:
.L865:
	.loc 1 151 0 is_stmt 0 discriminator 1
	movq	72(%r12), %rcx
	testq	%rcx, %rcx
	jne	.L901
	.loc 1 156 0 is_stmt 1
	cmpl	commands_started(%rip), %r13d
	jnb	.L866
	.loc 1 157 0
	orb	$1, 33(%r15)
.L866:
	.loc 1 160 0
	testl	%eax, %eax
	jne	.L867
	.loc 1 160 0 is_stmt 0 discriminator 2
	movzbl	133(%r12), %ecx
	andl	$4, %ecx
	je	.L868
.L867:
	.loc 1 160 0 discriminator 3
	cmpl	$1, %ebp
	jbe	.L932
.LVL641:
.L928:
	movzbl	133(%r12), %ecx
	andl	$4, %ecx
.LVL642:
.L868:
	.loc 1 201 0 is_stmt 1
	xorl	%eax, %eax
	testb	%cl, %cl
	sete	%al
.LVL643:
	.loc 1 203 0
	andb	$-2, 134(%r12)
.LBE218:
	.loc 1 125 0
	movq	56(%r12), %r12
.LBB221:
	.loc 1 201 0
	orl	%eax, %ebx
.LVL644:
.LBE221:
	.loc 1 123 0
	testq	%r12, %r12
	jne	.L894
.LVL645:
	.loc 1 212 0
	cmpl	$1, %ebx
	jne	.L933
.LVL646:
	.loc 1 246 0
	movq	%r15, 8(%rsp)
	movq	(%r15), %r15
.LVL647:
.L887:
.LBE217:
	.loc 1 115 0
	testq	%r15, %r15
	jne	.L888
.LVL648:
.L889:
	.loc 1 253 0
	movl	considered(%rip), %edx
	xorl	%eax, %eax
	testl	%edx, %edx
	sete	%al
	movl	%eax, considered(%rip)
.L890:
.LBE216:
	.loc 1 101 0
	cmpq	$0, 16(%rsp)
	jne	.L891
	.loc 1 256 0
	movl	rebuilding_makefiles(%rip), %eax
	testl	%eax, %eax
	je	.L858
.LVL649:
.L897:
	.loc 1 258 0
	movl	(%rsp), %eax
	.loc 1 260 0
	movl	%r14d, just_print_flag(%rip)
	.loc 1 258 0
	movl	%eax, touch_flag(%rip)
	.loc 1 259 0
	movl	4(%rsp), %eax
	movl	%eax, question_flag(%rip)
.L858:
	.loc 1 264 0
	addq	$40, %rsp
	.cfi_remember_state
	.cfi_def_cfa_offset 56
	movl	%ebp, %eax
	popq	%rbx
	.cfi_def_cfa_offset 48
	popq	%rbp
	.cfi_def_cfa_offset 40
	popq	%r12
	.cfi_def_cfa_offset 32
	popq	%r13
	.cfi_def_cfa_offset 24
	popq	%r14
	.cfi_def_cfa_offset 16
.LVL650:
	popq	%r15
	.cfi_def_cfa_offset 8
	ret
.LVL651:
	.p2align 4,,10
	.p2align 3
.L864:
	.cfi_restore_state
.LBB228:
.LBB225:
.LBB222:
	.loc 1 142 0
	movl	$0, just_print_flag(%rip)
	movl	$0, question_flag(%rip)
	movl	$0, touch_flag(%rip)
	jmp	.L863
.LVL652:
	.p2align 4,,10
	.p2align 3
.L932:
	.loc 1 164 0
	movzbl	132(%r12), %eax
.LVL653:
	andl	$3, %eax
	je	.L870
	.loc 1 168 0
	movzbl	%al, %ebp
.LVL654:
	.loc 1 173 0
	movl	question_flag(%rip), %eax
	testl	%eax, %eax
	je	.L928
	.loc 1 172 0
	movl	keep_going_flag(%rip), %eax
	testl	%eax, %eax
	jne	.L928
	.loc 1 173 0 discriminator 3
	movl	rebuilding_makefiles(%rip), %r13d
.LVL655:
	testl	%r13d, %r13d
	jne	.L928
.LVL656:
	.loc 1 203 0
	andb	$-2, 134(%r12)
.LBE222:
	.loc 1 210 0
	movl	$1, %r13d
	movq	16(%r15), %rcx
.LVL657:
.L893:
	.loc 1 221 0
	testb	$3, 132(%rcx)
	jne	.L879
	.loc 1 221 0 is_stmt 0 discriminator 1
	testb	$1, 33(%r15)
	jne	.L879
	.loc 1 223 0 is_stmt 1
	movl	silent_flag(%rip), %edi
	testl	%edi, %edi
	jne	.L879
	.loc 1 223 0 is_stmt 0 discriminator 1
	movl	question_flag(%rip), %esi
	testl	%esi, %esi
	jne	.L879
	.loc 1 224 0 is_stmt 1
	testb	$32, 133(%rcx)
	jne	.L881
	.loc 1 224 0 is_stmt 0 discriminator 2
	cmpq	$0, 32(%rcx)
	je	.L881
	.loc 1 224 0 discriminator 4
	movl	$5, %edx
	movl	$.LC58, %esi
	xorl	%edi, %edi
	movq	%rcx, 24(%rsp)
	call	dcgettext
.LVL658:
	movq	24(%rsp), %rcx
	movq	%rax, %rbx
.L883:
	.loc 1 224 0 discriminator 6
	movq	(%rcx), %r12
	movq	%r12, %rdi
	call	strlen
.LVL659:
	movq	%r12, %rcx
	movq	%rax, %rsi
	movq	%rbx, %rdx
	movl	$1, %edi
	xorl	%eax, %eax
	call	message
.LVL660:
.L879:
	.loc 1 230 0 is_stmt 1
	cmpq	$0, 8(%rsp)
	.loc 1 231 0
	movq	(%r15), %rax
	.loc 1 230 0
	je	.L934
.L884:
	.loc 1 233 0
	movq	8(%rsp), %rbx
	.loc 1 236 0
	movq	%r15, %rdi
	.loc 1 233 0
	movq	%rax, (%rbx)
.LVL661:
	.loc 1 236 0
	call	free
.LVL662:
	.loc 1 238 0
	movq	(%rbx), %r15
.LVL663:
.L885:
	.loc 1 240 0 discriminator 4
	testl	%r13d, %r13d
	je	.L887
.LBE225:
	.loc 1 252 0
	testq	%r15, %r15
	jne	.L890
	jmp	.L889
.LVL664:
	.p2align 4,,10
	.p2align 3
.L870:
.LBB226:
.LBB223:
.LBB219:
	.loc 1 177 0
	movl	rebuilding_makefiles(%rip), %r11d
	movq	112(%r12), %rax
	testl	%r11d, %r11d
	je	.L874
	.loc 1 177 0 is_stmt 0 discriminator 1
	testq	%rax, %rax
	je	.L935
.L898:
	.loc 1 180 0 is_stmt 1
	movzbl	133(%r12), %ecx
	andl	$4, %ecx
	je	.L868
	.loc 1 180 0 is_stmt 0 discriminator 1
	testb	$1, 33(%r15)
	je	.L868
	.loc 1 180 0 discriminator 2
	cmpq	%rax, 120(%r12)
	je	.L868
	.loc 1 189 0 is_stmt 1
	movl	rebuilding_makefiles(%rip), %r10d
	testl	%r10d, %r10d
	je	.L903
	.loc 1 190 0
	movl	just_print_flag(%rip), %r9d
	testl	%r9d, %r9d
	jne	.L878
	movl	question_flag(%rip), %r8d
	movl	$0, %eax
	testl	%r8d, %r8d
	cmove	%eax, %ebp
.LVL665:
.L878:
	.loc 1 192 0 discriminator 1
	movzbl	134(%r12), %eax
	testb	$1, %al
	je	.L868
.LVL666:
.LBE219:
	.loc 1 203 0
	andl	$-2, %eax
	movl	$1, %r13d
.LVL667:
	movb	%al, 134(%r12)
.LVL668:
.LBE223:
	.loc 1 230 0
	cmpq	$0, 8(%rsp)
	.loc 1 231 0
	movq	(%r15), %rax
	.loc 1 230 0
	jne	.L884
.LVL669:
.L934:
	.loc 1 231 0
	movq	%rax, %rbx
	.loc 1 236 0
	movq	%r15, %rdi
	.loc 1 231 0
	movq	%rax, 16(%rsp)
.LVL670:
	movq	%rbx, %r15
.LVL671:
	.loc 1 236 0
	call	free
.LVL672:
	jmp	.L885
.LVL673:
.L874:
.LBB224:
.LBB220:
	.loc 1 177 0 discriminator 2
	testq	%rax, %rax
	jne	.L898
	.loc 1 177 0 is_stmt 0 discriminator 8
	movl	$1, %esi
	movq	%r12, %rdi
	call	f_mtime
.LVL674:
	.loc 1 178 0 is_stmt 1 discriminator 8
	jmp	.L877
.LVL675:
	.p2align 4,,10
	.p2align 3
.L902:
	movq	%rcx, %r12
.LVL676:
.L877:
	.loc 1 178 0 is_stmt 0 discriminator 1
	movq	72(%r12), %rcx
	testq	%rcx, %rcx
	jne	.L902
	jmp	.L898
.L935:
	.loc 1 177 0 is_stmt 1 discriminator 3
	xorl	%esi, %esi
	movq	%r12, %rdi
	call	f_mtime
.LVL677:
	jmp	.L877
.L903:
	xorl	%ebp, %ebp
.LVL678:
	jmp	.L868
.LVL679:
.L881:
.LBE220:
.LBE224:
	.loc 1 224 0 discriminator 3
	movl	$5, %edx
	movl	$.LC57, %esi
	xorl	%edi, %edi
	movq	%rcx, 24(%rsp)
	call	dcgettext
.LVL680:
	movq	24(%rsp), %rcx
	movq	%rax, %rbx
	jmp	.L883
.LVL681:
.L859:
.LBE226:
.LBE228:
	.loc 1 101 0
	cmpq	$0, 16(%rsp)
	.loc 1 91 0
	movq	%rbx, goal_list(%rip)
	.loc 1 85 0
	movl	$1, %ebp
	.loc 1 94 0
	movl	$1, considered(%rip)
	.loc 1 101 0
	jne	.L896
	jmp	.L897
.LVL682:
.L933:
	movl	rebuilding_makefiles(%rip), %eax
.LBB229:
.LBB227:
	.loc 1 210 0
	movq	16(%r15), %rcx
	.loc 1 217 0
	testl	%eax, %eax
	movl	%eax, %r13d
.LVL683:
	je	.L893
	movl	%ebx, %r13d
	jmp	.L879
.LBE227:
.LBE229:
	.cfi_endproc
.LFE53:
	.size	update_goal_chain, .-update_goal_chain
	.local	buf.6604
	.comm	buf.6604,8,8
	.local	std_dirs.6607
	.comm	std_dirs.6607,4,4
	.data
	.align 4
	.type	libdir_maxlen.6606, @object
	.size	libdir_maxlen.6606, 4
libdir_maxlen.6606:
	.long	-1
	.section	.rodata.str1.1
.LC59:
	.string	"/lib"
.LC60:
	.string	"/usr/lib"
.LC61:
	.string	"/usr/local/lib"
	.data
	.align 32
	.type	dirs.6593, @object
	.size	dirs.6593, 32
dirs.6593:
	.quad	.LC59
	.quad	.LC60
	.quad	.LC61
	.quad	0
	.local	buflen.6605
	.comm	buflen.6605,4,4
	.local	adjusted_now.6559
	.comm	adjusted_now.6559,8,8
	.local	considered
	.comm	considered,4,4
	.local	goal_dep
	.comm	goal_dep,8,8
	.local	goal_list
	.comm	goal_list,8,8
	.globl	commands_started
	.bss
	.align 4
	.type	commands_started, @object
	.size	commands_started, 4
commands_started:
	.zero	4
	.section	.rodata.cst8,"aM",@progbits,8
	.align 8
.LC12:
	.long	0
	.long	1104006501
	.align 8
.LC13:
	.long	0
	.long	1079558144
	.align 8
.LC14:
	.long	0
	.long	1139802112
	.align 8
.LC15:
	.long	0
	.long	1138753536
	.text
.Letext0:
	.file 3 "/home/daniter/workspace/gg-playground/targets/gcc63build/install/lib/gcc/x86_64-pc-linux-gnu/6.3.0/include/stddef.h"
	.file 4 "/usr/include/x86_64-linux-gnu/bits/types.h"
	.file 5 "/usr/include/x86_64-linux-gnu/sys/types.h"
	.file 6 "/usr/include/time.h"
	.file 7 "/usr/include/x86_64-linux-gnu/bits/stat.h"
	.file 8 "/usr/include/signal.h"
	.file 9 "/usr/include/libio.h"
	.file 10 "/usr/include/stdio.h"
	.file 11 "/usr/include/x86_64-linux-gnu/bits/sys_errlist.h"
	.file 12 "/usr/include/x86_64-linux-gnu/sys/time.h"
	.file 13 "/usr/include/errno.h"
	.file 14 "/usr/include/unistd.h"
	.file 15 "./getopt.h"
	.file 16 "/usr/include/stdint.h"
	.file 17 "/usr/include/x86_64-linux-gnu/bits/resource.h"
	.file 18 "makeint.h"
	.file 19 "hash.h"
	.file 20 "filedef.h"
	.file 21 "dep.h"
	.file 22 "commands.h"
	.file 23 "variable.h"
	.file 24 "output.h"
	.file 25 "job.h"
	.file 26 "debug.h"
	.file 27 "/usr/include/x86_64-linux-gnu/bits/errno.h"
	.file 28 "/usr/include/string.h"
	.file 29 "/usr/include/stdlib.h"
	.file 30 "/usr/include/libintl.h"
	.file 31 "/usr/include/fcntl.h"
	.file 32 "<built-in>"
	.section	.note.GNU-stack,"",@progbits
